
Optional file vector_offset_init.o not found
Archive member included to satisfy reference by file (symbol)

f:/microchip/xc32/v4.35/bin/bin/../../lib/gcc/pic32mx/8.3.1/fpu64\libgcc.a(_divdi3.o)
                              build/default/production/_ext/1360937237/bme280_driver.o (__divdi3)
f:/microchip/xc32/v4.35/bin/bin/../../lib/gcc/pic32mx/8.3.1/../../../../pic32mx/lib/fpu64\libpic32.a(strlen.o)
                              build/default/production/_ext/1360937237/main.o (strlen)
f:/microchip/xc32/v4.35/bin/bin/../../lib/gcc/pic32mx/8.3.1/../../../../pic32mx/lib/fpu64\libpic32.a(default-on-reset.o)
                              C:\Users\huope\AppData\Local\Temp\cce2fMSS.o (_on_reset)
f:/microchip/xc32/v4.35/bin/bin/../../lib/gcc/pic32mx/8.3.1/../../../../pic32mx/lib/fpu64\libpic32.a(default-on-bootstrap.o)
                              C:\Users\huope\AppData\Local\Temp\cce2fMSS.o (_on_bootstrap)
f:/microchip/xc32/v4.35/bin/bin/../../lib/gcc/pic32mx/8.3.1/../../../../pic32mx/lib/fpu64\libpic32.a(default-nmi-handler.o)
                              C:\Users\huope\AppData\Local\Temp\cce2fMSS.o (_nmi_handler)
f:/microchip/xc32/v4.35/bin/bin/../../lib/gcc/pic32mx/8.3.1/../../../../pic32mx/lib/fpu64\libpic32.a(pic32_data_init_core.o)
                              C:\Users\huope\AppData\Local\Temp\cce2fMSS.o (__pic32_data_init)
f:/microchip/xc32/v4.35/bin/bin/../../lib/gcc/pic32mx/8.3.1/../../../../pic32mx/lib/fpu64\libpic32.a(pic32_init_cache.o)
                              C:\Users\huope\AppData\Local\Temp\cce2fMSS.o (__pic32_init_cache)
f:/microchip/xc32/v4.35/bin/bin/../../lib/gcc/pic32mx/8.3.1/../../../../pic32mx/lib/fpu64\libpic32.a(pic32_init_tlb_ebi_sqi.o)
                              C:\Users\huope\AppData\Local\Temp\cce2fMSS.o (__pic32_tlb_init_ebi_sqi)
f:/microchip/xc32/v4.35/bin/bin/../../lib/gcc/pic32mx/8.3.1/../../../../pic32mx/lib/fpu64\libpic32.a(general-exception.o)
                              C:\Users\huope\AppData\Local\Temp\cce2fMSS.o (_general_exception_context)
f:/microchip/xc32/v4.35/bin/bin/../../lib/gcc/pic32mx/8.3.1/../../../../pic32mx/lib/fpu64\libpic32.a(cache-err-exception.o)
                              C:\Users\huope\AppData\Local\Temp\cce2fMSS.o (_cache_err_exception_context)
f:/microchip/xc32/v4.35/bin/bin/../../lib/gcc/pic32mx/8.3.1/../../../../pic32mx/lib/fpu64\libpic32.a(simple-tlb-refill-exception.o)
                              C:\Users\huope\AppData\Local\Temp\cce2fMSS.o (_simple_tlb_refill_exception_context)
f:/microchip/xc32/v4.35/bin/bin/../../lib/gcc/pic32mx/8.3.1/../../../../pic32mx/lib/fpu64\libpic32.a(defaultinterrupt.o)
                              C:\Users\huope\AppData\Local\Temp\ccuT72u7.o (_DefaultInterrupt)
f:/microchip/xc32/v4.35/bin/bin/../../lib/gcc/pic32mx/8.3.1/../../../../pic32mx/lib/fpu64\libc-musl.a(__sio_sprintf_dn.o)
                              (_sprintf_dn)
f:/microchip/xc32/v4.35/bin/bin/../../lib/gcc/pic32mx/8.3.1/../../../../pic32mx/lib/fpu64\libc-musl.a(__fmt_d.o)
                              f:/microchip/xc32/v4.35/bin/bin/../../lib/gcc/pic32mx/8.3.1/../../../../pic32mx/lib/fpu64\libc-musl.a(__sio_sprintf_dn.o) (__fmt_d_needed)
f:/microchip/xc32/v4.35/bin/bin/../../lib/gcc/pic32mx/8.3.1/../../../../pic32mx/lib/fpu64\libc-musl.a(__pop_int.o)
                              f:/microchip/xc32/v4.35/bin/bin/../../lib/gcc/pic32mx/8.3.1/../../../../pic32mx/lib/fpu64\libc-musl.a(__sio_sprintf_dn.o) (__pop_int_needed)
f:/microchip/xc32/v4.35/bin/bin/../../lib/gcc/pic32mx/8.3.1/../../../../pic32mx/lib/fpu64\libc-musl.a(__pop_ptr.o)
                              f:/microchip/xc32/v4.35/bin/bin/../../lib/gcc/pic32mx/8.3.1/../../../../pic32mx/lib/fpu64\libc-musl.a(__sio_sprintf_dn.o) (__pop_ptr_needed)
f:/microchip/xc32/v4.35/bin/bin/../../lib/gcc/pic32mx/8.3.1/../../../../pic32mx/lib/fpu64\libc-musl.a(__printf_core.o)
                              f:/microchip/xc32/v4.35/bin/bin/../../lib/gcc/pic32mx/8.3.1/../../../../pic32mx/lib/fpu64\libc-musl.a(__fmt_d.o) (__pad)
f:/microchip/xc32/v4.35/bin/bin/../../lib/gcc/pic32mx/8.3.1/../../../../pic32mx/lib/fpu64\libc-musl.a(atoi.o)
                              f:/microchip/xc32/v4.35/bin/bin/../../lib/gcc/pic32mx/8.3.1/../../../../pic32mx/lib/fpu64\libc-musl.a(__printf_core.o) (atoi)
f:/microchip/xc32/v4.35/bin/bin/../../lib/gcc/pic32mx/8.3.1/../../../../pic32mx/lib/fpu64\libc-musl.a(memcpy.o)
                              f:/microchip/xc32/v4.35/bin/bin/../../lib/gcc/pic32mx/8.3.1/../../../../pic32mx/lib/fpu64\libc-musl.a(__printf_core.o) (memcpy)
f:/microchip/xc32/v4.35/bin/bin/../../lib/gcc/pic32mx/8.3.1/../../../../pic32mx/lib/fpu64\libc-musl.a(memset.o)
                              f:/microchip/xc32/v4.35/bin/bin/../../lib/gcc/pic32mx/8.3.1/../../../../pic32mx/lib/fpu64\libc-musl.a(__printf_core.o) (memset)
f:/microchip/xc32/v4.35/bin/bin/../../lib/gcc/pic32mx/8.3.1/../../../../pic32mx/lib/fpu64\libc-musl.a(tolower.o)
                              f:/microchip/xc32/v4.35/bin/bin/../../lib/gcc/pic32mx/8.3.1/../../../../pic32mx/lib/fpu64\libc-musl.a(__printf_core.o) (tolower)
f:/microchip/xc32/v4.35/bin/bin/../../lib/gcc/pic32mx/8.3.1/../../../../pic32mx/lib/fpu64\libc-musl.a(__int_vsprintf.o)
                              f:/microchip/xc32/v4.35/bin/bin/../../lib/gcc/pic32mx/8.3.1/../../../../pic32mx/lib/fpu64\libc-musl.a(__sio_sprintf_dn.o) (__vsprintf)
f:/microchip/xc32/v4.35/bin/bin/../../lib/gcc/pic32mx/8.3.1/../../../../pic32mx/lib/fpu64\libc-musl.a(__cvt_u.o)
                              f:/microchip/xc32/v4.35/bin/bin/../../lib/gcc/pic32mx/8.3.1/../../../../pic32mx/lib/fpu64\libc-musl.a(__fmt_d.o) (__cvt_u)
f:/microchip/xc32/v4.35/bin/bin/../../lib/gcc/pic32mx/8.3.1/../../../../pic32mx/lib/fpu64\libc-musl.a(__pop_float.o)
                              f:/microchip/xc32/v4.35/bin/bin/../../lib/gcc/pic32mx/8.3.1/../../../../pic32mx/lib/fpu64\libc-musl.a(__printf_core.o) (__pop_float)
f:/microchip/xc32/v4.35/bin/bin/../../lib/gcc/pic32mx/8.3.1/../../../../pic32mx/lib/fpu64\libc-musl.a(__int_vsnprintf.o)
                              f:/microchip/xc32/v4.35/bin/bin/../../lib/gcc/pic32mx/8.3.1/../../../../pic32mx/lib/fpu64\libc-musl.a(__int_vsprintf.o) (__vsnprintf)
f:/microchip/xc32/v4.35/bin/bin/../../lib/gcc/pic32mx/8.3.1/../../../../pic32mx/lib/fpu64\libc-musl.a(__int_vfprintf.o)
                              f:/microchip/xc32/v4.35/bin/bin/../../lib/gcc/pic32mx/8.3.1/../../../../pic32mx/lib/fpu64\libc-musl.a(__int_vsnprintf.o) (__vfprintf)
f:/microchip/xc32/v4.35/bin/bin/../../lib/gcc/pic32mx/8.3.1/fpu64\libgcc.a(_udivdi3.o)
                              f:/microchip/xc32/v4.35/bin/bin/../../lib/gcc/pic32mx/8.3.1/../../../../pic32mx/lib/fpu64\libc-musl.a(__cvt_u.o) (__udivdi3)
f:/microchip/xc32/v4.35/bin/bin/../../lib/gcc/pic32mx/8.3.1/fpu64\libgcc.a(_umoddi3.o)
                              f:/microchip/xc32/v4.35/bin/bin/../../lib/gcc/pic32mx/8.3.1/../../../../pic32mx/lib/fpu64\libc-musl.a(__cvt_u.o) (__umoddi3)
f:/microchip/xc32/v4.35/bin/bin/../../lib/gcc/pic32mx/8.3.1/../../../../pic32mx/lib/fpu64\libpic32.a(errno.o)
                              f:/microchip/xc32/v4.35/bin/bin/../../lib/gcc/pic32mx/8.3.1/../../../../pic32mx/lib/fpu64\libc-musl.a(__printf_core.o) (errno)

Optional file vector_offset_init.o not found
f:/microchip/xc32/v4.35/bin/bin/../../lib/gcc/pic32mx/8.3.1/../../../../pic32mx/lib/fpu64\libpic32.a(pic32_data_init_clear.o)
                              (__dinit_clear_needed)
f:/microchip/xc32/v4.35/bin/bin/../../lib/gcc/pic32mx/8.3.1/../../../../pic32mx/lib/fpu64\libpic32.a(pic32_data_init_copy.o)
                              (__dinit_copy_needed)

Microchip PIC32 Memory-Usage Report

kseg0 Program-Memory Usage
section                    address  length [bytes]      (dec)  Description
-------                 ----------  -------------------------  -----------
.simple_tlb_refill_excp 0x9d000000           0x10          16   
.text.__pop_ptr         0x9d000010           0xe4         228   
.rodata.str1.4          0x9d0000f4            0xc          12   
.cache_err_excpt        0x9d000100           0x10          16   
.text.UART2_FAULT_Inter 0x9d000110           0x70         112   
.app_excpt              0x9d000180           0x10          16  General-Exception 
.text.I2C1_Initialize   0x9d000190           0x6c         108   
.vectors                0x9d000200           0x88         136   
.text.__printf_core     0x9d000288          0x5a4        1444   
.text.I2C1_MASTER_Inter 0x9d00082c          0x558        1368   
.dinit                  0x9d000d84          0x410        1040   
.text                   0x9d001194          0x774        1908  App's exec code 
.text.main              0x9d001908          0x37c         892   
.text.BME280_CalibParam 0x9d001c84          0x2fc         764   
.text.TIMER_2_Handler   0x9d001f80          0x1d0         464   
.text.I2C1_BUS_Handler  0x9d002150          0x1d0         464   
.text.I2C1_MASTER_Handl 0x9d002320          0x1d0         464   
.text.CHANGE_NOTICE_B_H 0x9d0024f0          0x1d0         464   
.text.DMA0_Handler      0x9d0026c0          0x1d0         464   
.text.UART2_FAULT_Handl 0x9d002890          0x1d0         464   
.text.UART2_RX_Handler  0x9d002a60          0x1d0         464   
.text.UART2_TX_Handler  0x9d002c30          0x1d0         464   
.text.__pop_int         0x9d002e00          0x188         392   
.text                   0x9d002f88          0x168         360  App's exec code 
.text.__fmt_d           0x9d0030f0          0x150         336   
.text.DMA0_InterruptHan 0x9d003240          0x148         328   
.text.__cvt_u           0x9d003388          0x13c         316   
.text.UART2_RX_Interrup 0x9d0034c4          0x128         296   
.text.UART2_TX_Interrup 0x9d0035ec          0x128         296   
.text.DMAC_ChannelTrans 0x9d003714          0x104         260   
.text.DMAC_ChannelSetAd 0x9d003818          0x100         256   
.text.__pad             0x9d003918          0x100         256   
.text.PasswordDiscovery 0x9d003a18           0xf4         244   
.text.general_exception 0x9d003b0c           0xdc         220   
.text._cache_err_except 0x9d003be8           0xd8         216   
.text.simple_tlb_refill 0x9d003cc0           0xd8         216   
.text.GPIO_PinIntEnable 0x9d003d98           0xc8         200   
.text.BME280_SetOversam 0x9d003e60           0xc8         200   
.text.GPIO_Initialize   0x9d003f28           0xbc         188   
.tlb.__pic32_tlb_init_e 0x9d003fe4           0xbc         188   
.rodata.main.str1.4     0x9d0040a0           0xb8         184   
.text.CLK_Initialize    0x9d004158           0xb4         180   
.text.GPIO_PinInterrupt 0x9d00420c           0xac         172   
.text.BME280_ReadRawWea 0x9d0042b8           0x9c         156   
.text.SYS_Initialize    0x9d004354           0x90         144   
.text.UART2_Read        0x9d0043e4           0x90         144   
.text.I2C1_WriteRead    0x9d004474           0x8c         140   
.text.I2C1_Write        0x9d004500           0x88         136   
.text.UART2_Initialize  0x9d004588           0x88         136   
.text.BME280Sensor_Init 0x9d004610           0x84         132   
.text.CHANGE_NOTICE_B_I 0x9d004694           0x84         132   
.text.__vsnprintf       0x9d004718           0x80         128   
.text                   0x9d004798           0x7c         124  App's exec code 
.text.atoi              0x9d004814           0x7c         124   
.text.EVIC_Initialize   0x9d004890           0x78         120   
.text.DMAC_Initialize   0x9d004908           0x78         120   
.text.UART2_ErrorClear  0x9d004980           0x74         116   
.text.I2C1_BUS_Interrup 0x9d0049f4           0x6c         108   
.text.BME280_GetTempRea 0x9d004a60           0x64         100   
.text.__string_out      0x9d004ac4           0x5c          92   
.text.__fmt_state       0x9d004b20           0x58          88   
.text.BME280Sensor_Read 0x9d004b78           0x54          84   
.text.main_entry        0x9d004bcc           0x54          84   
.text.BME280_PowerMode_ 0x9d004c20           0x50          80   
.text.CORETIMER_DelayMs 0x9d004c70           0x4c          76   
.text.TIMER_2_Interrupt 0x9d004cbc           0x48          72   
.text.__pop_float       0x9d004d04           0x48          72   
.text.BME280Sensor_Read 0x9d004d4c           0x44          68   
.text                   0x9d004d90           0x44          68  App's exec code 
.text.BME280Sensor_Writ 0x9d004dd4           0x40          64   
.text.CORETIMER_Initial 0x9d004e14           0x3c          60   
.text.TMR2_Initialize   0x9d004e50           0x3c          60   
.text.__vfprintf        0x9d004e8c           0x3c          60   
.text.I2CBufferEventHan 0x9d004ec8           0x2c          44   
.text.memcpy            0x9d004ef4           0x2c          44   
.text.BME280_SoftReset  0x9d004f20           0x28          40   
.text.__wrap_sprintf    0x9d004f48           0x28          40   
.text.memset            0x9d004f70           0x28          40   
.text.__vsprintf        0x9d004f98           0x28          40   
.text.BME280_ID_Get     0x9d004fc0           0x24          36   
.text.S1_User_Handler   0x9d004fe4           0x20          32   
.text.DMAC_ChannelCallb 0x9d005004           0x20          32   
.text                   0x9d005024           0x20          32  App's exec code 
.text.I2C1_CallbackRegi 0x9d005044           0x1c          28   
.text.tolower           0x9d005060           0x1c          28   
.MIPS.abiflags          0x9d005080           0x18          24   
.text.I2C1_ErrorGet     0x9d005098           0x18          24   
.rodata.cst8            0x9d0050b0           0x18          24   
.text._general_exceptio 0x9d0050c8           0x18          24   
.text._bootstrap_except 0x9d0050e0           0x18          24   
.text._cache_err_except 0x9d0050f8           0x18          24   
.text._simple_tlb_refil 0x9d005110           0x18          24   
.text                   0x9d005128           0x18          24  App's exec code 
.rodata                 0x9d005140           0x18          24  Read-only const 
.text                   0x9d005158           0x18          24  App's exec code 
.text.UARTDmaChannelHan 0x9d005170           0x14          20   
.text.UART2_ReadIsBusy  0x9d005184           0x14          20   
.text.TMR2_Start        0x9d005198           0x14          20   
.text.TMR2_Stop         0x9d0051ac           0x14          20   
.text.TMR2_CallbackRegi 0x9d0051c0           0x14          20   
.text.BME280_RegisterDr 0x9d0051d4           0x14          20   
.text.BME280_RegisterDr 0x9d0051e8           0x14          20   
.text.BME280_RegisterDr 0x9d0051fc           0x14          20   
.rodata                 0x9d005210           0x14          20  Read-only const 
.text.tmr1EventHandler  0x9d005224           0x10          16   
.text.TMR2_PeriodSet    0x9d005234           0x10          16   
.rodata.portNumCb       0x9d005244            0x8           8   
.text._on_reset         0x9d00524c            0x8           8   
.text._on_bootstrap     0x9d005254            0x8           8   
.text.__dummy_fmt3      0x9d00525c            0x8           8   
.text.__dummy_fmt4      0x9d005264            0x8           8   
.text.__dummy_fmts      0x9d00526c            0x8           8   
      Total kseg0_program_mem used  :      0x526c       21100  4.0% of 0x80000

kseg0 Boot-Memory Usage
section                    address  length [bytes]      (dec)  Description
-------                 ----------  -------------------------  -----------
         Total kseg0_boot_mem used  :           0           0  

kseg1 Boot-Memory Usage
section                    address  length [bytes]      (dec)  Description
-------                 ----------  -------------------------  -----------
.reset                  0xbfc00000          0x1c4         452  Reset handler 
.bev_excpt              0xbfc00380           0x10          16  BEV-Exception 
         Total kseg1_boot_mem used  :       0x1d4         468  40.6% of 0x480
        --------------------------------------------------------------------------
         Total Program Memory used  :      0x5440       21568  4.1% of 0x80480
        --------------------------------------------------------------------------


Data-Memory Usage
section                    address  length [bytes]      (dec)  Description
-------                 ----------  -------------------------  -----------
.sdata                  0x80000000           0x28          40  Small init data 
.sbss                   0x80000028           0x10          16  Small uninit data 
.bss.BME280SensorData   0x80000038           0xcc         204   
.bss.gDMAChannelObj     0x80000104           0x80         128   
.bss.portPinCbObj       0x80000184            0xc          12   
.bss.uartTxBuffer       0x80000190           0x64         100   
.bss.BME280DriverData   0x800001f4           0x40          64   
.bss.i2c1Obj            0x80000234           0x34          52   
.bss.uart2Obj           0x80000268           0x34          52   
.bss.errno              0x8000029c            0x4           4   
         Total kseg0/kseg1 data_mem used  :       0x2a0         672  0.5% of 0x20000
        --------------------------------------------------------------------------
            Total Data Memory used  :       0x2a0         672  0.5% of 0x20000
        --------------------------------------------------------------------------


Dynamic Data-Memory Reservation
section                    address  length [bytes]      (dec)  Description
-------                 ----------  -------------------------  -----------
heap                    0x800002a8          0x200         512  Reserved for heap 
stack                   0x800004c0        0x1fb38      129848  Reserved for stack 

        --------------------------------------------------------------------------

Note: Microchip PIC32 Memory-Usage Report By Module might not be accurate when used in conjunction with LTO!
Microchip PIC32 Memory-Usage Report By Module

        text        data         bss         dec         hex    basename                         filename
--------------------------------------------------------------------------------
        3776           0           0        3776         ec0    interrupts.o                 build/default/production/_ext/1171490990/interrupts.o
        1804           0         311        2115         843    main.o                       build/default/production/_ext/1360937237/main.o
        1912           0          52        1964         7ac    plib_i2c1_master.o           build/default/production/_ext/513455433/plib_i2c1_master.o
        1940           0           0        1940         794    __printf_core.o              libc-musl.a
        1436           0          64        1500         5dc    bme280_driver.o              build/default/production/_ext/1360937237/bme280_driver.o
        1120           0          52        1172         494    plib_uart2.o                 build/default/production/_ext/1865657120/plib_uart2.o
         996           0         128        1124         464    plib_dmac.o                  build/default/production/_ext/1865161661/plib_dmac.o
        1040           0           0        1040         410    data_init                    data_init
         956           0           0         956         3bc    _udivdi3.o                   libgcc.a
         952           0           0         952         3b8    _umoddi3.o                   libgcc.a
         700           0          12         712         2c8    plib_gpio.o                  build/default/production/_ext/1865254177/plib_gpio.o
           0         668           0         668         29c    ccQtjejd.o                   C:\Users\huope\AppData\Local\Temp\ccQtjejd.o
         600           0           0         600         258    cce2fMSS.o                   C:\Users\huope\AppData\Local\Temp\cce2fMSS.o
         448          36           0         484         1e4    pic32_init_cache.o           libpic32.a
         392           0           0         392         188    __pop_int.o                  libc-musl.a
         360           0           0         360         168    strlen.o                     libpic32.a
         336           0           0         336         150    __fmt_d.o                    libc-musl.a
         316           0           0         316         13c    __cvt_u.o                    libc-musl.a
         228           0           0         228          e4    __pop_ptr.o                  libc-musl.a
         220           0           0         220          dc    general-exception.o          libpic32.a
         216           0           0         216          d8    cache-err-exception.o        libpic32.a
         208           0           8         216          d8    plib_tmr2.o                  build/default/production/_ext/60181895/plib_tmr2.o
         216           0           0         216          d8    simple-tlb-refill-exception.olibpic32.a
         188           0           0         188          bc    pic32_init_tlb_ebi_sqi.o     libpic32.a
         180           0           0         180          b4    plib_clk.o                   build/default/production/_ext/60165520/plib_clk.o
         168           0           0         168          a8    initialization.o             build/default/production/_ext/1171490990/initialization.o
         144           0           0         144          90    pic32_data_init_core.o       libpic32.a
         136           4           0         140          8c    plib_coretimer.o             build/default/production/_ext/1249264884/plib_coretimer.o
         128           0           0         128          80    __int_vsnprintf.o            libc-musl.a
         124           0           0         124          7c    atoi.o                       libc-musl.a
         120           0           0         120          78    plib_evic.o                  build/default/production/_ext/1865200349/plib_evic.o
          96           0           0          96          60    exceptions.o                 build/default/production/_ext/1171490990/exceptions.o
          72           0           0          72          48    defaultinterrupt.o           libpic32.a
          72           0           0          72          48    __pop_float.o                libc-musl.a
          68           0           0          68          44    debug-exception-return.o     f:/microchip/xc32/v4.35/bin/bin/../../lib/gcc/pic32mx/8.3.1/../../../../pic32mx/lib/fpu64\debug-exception-return.o
          68           0           0          68          44    pic32_software_reset.o       f:/microchip/xc32/v4.35/bin/bin/../../lib/gcc/pic32mx/8.3.1/../../../../pic32mx/lib/fpu64\pic32_software_reset.o
          60           0           0          60          3c    __int_vfprintf.o             libc-musl.a
          44           0           0          44          2c    memcpy.o                     libc-musl.a
          40           0           0          40          28    memset.o                     libc-musl.a
          40           0           0          40          28    __int_vsprintf.o             libc-musl.a
          40           0           0          40          28    __sio_sprintf_dn.o           libc-musl.a
          32           0           0          32          20    pic32_data_init_copy.o       libpic32.a
          28           0           0          28          1c    tolower.o                    libc-musl.a
          24           0           0          24          18    default-nmi-handler.o        libpic32.a
          24           0           0          24          18    pic32_data_init_clear.o      libpic32.a
           8           0           0           8           8    default-on-reset.o           libpic32.a
           8           0           0           8           8    default-on-bootstrap.o       libpic32.a
           0           0           4           4           4    errno.o                      libpic32.a
          48           0           0          48          30    misc                         misc
           0           0           0           1           1    padding                      padding
--------------------------------------------------------------------------------
       22132         708         631       23472        5bb0    dist/default/production/PIC32MZ_Production.X.production.elf


Discarded input sections

 .text          0x0000000000000000        0x0 f:/microchip/xc32/v4.35/bin/bin/../../lib/gcc/pic32mx/8.3.1/../../../../pic32mx/lib/fpu64\debug-exception-return.o
 .data          0x0000000000000000        0x0 f:/microchip/xc32/v4.35/bin/bin/../../lib/gcc/pic32mx/8.3.1/../../../../pic32mx/lib/fpu64\debug-exception-return.o
 .bss           0x0000000000000000        0x0 f:/microchip/xc32/v4.35/bin/bin/../../lib/gcc/pic32mx/8.3.1/../../../../pic32mx/lib/fpu64\debug-exception-return.o
 .xc_stack_usage.hdr
                0x0000000000000000        0xe f:/microchip/xc32/v4.35/bin/bin/../../lib/gcc/pic32mx/8.3.1/../../../../pic32mx/lib/fpu64\debug-exception-return.o
 .xc_stack_usage
                0x0000000000000000       0x1d f:/microchip/xc32/v4.35/bin/bin/../../lib/gcc/pic32mx/8.3.1/../../../../pic32mx/lib/fpu64\debug-exception-return.o
 .text          0x0000000000000000        0x0 build/default/production/_ext/513455433/plib_i2c1_master.o
 .data          0x0000000000000000        0x0 build/default/production/_ext/513455433/plib_i2c1_master.o
 .bss           0x0000000000000000        0x0 build/default/production/_ext/513455433/plib_i2c1_master.o
 .reginfo       0x0000000000000000       0x18 build/default/production/_ext/513455433/plib_i2c1_master.o
 .MIPS.abiflags
                0x0000000000000000       0x18 build/default/production/_ext/513455433/plib_i2c1_master.o
 .text.I2C1_IsBusy
                0x0000000000000000       0x40 build/default/production/_ext/513455433/plib_i2c1_master.o
 .text.I2C1_Read
                0x0000000000000000       0x88 build/default/production/_ext/513455433/plib_i2c1_master.o
 .text.I2C1_TransferSetup
                0x0000000000000000       0xf8 build/default/production/_ext/513455433/plib_i2c1_master.o
 .text.I2C1_TransferAbort
                0x0000000000000000       0x48 build/default/production/_ext/513455433/plib_i2c1_master.o
 .rodata.cst4   0x0000000000000000       0x10 build/default/production/_ext/513455433/plib_i2c1_master.o
 .text          0x0000000000000000        0x0 build/default/production/_ext/1171490990/initialization.o
 .data          0x0000000000000000        0x0 build/default/production/_ext/1171490990/initialization.o
 .bss           0x0000000000000000        0x0 build/default/production/_ext/1171490990/initialization.o
 .reginfo       0x0000000000000000       0x18 build/default/production/_ext/1171490990/initialization.o
 .MIPS.abiflags
                0x0000000000000000       0x18 build/default/production/_ext/1171490990/initialization.o
 .text          0x0000000000000000        0x0 build/default/production/_ext/163028504/xc32_monitor.o
 .data          0x0000000000000000        0x0 build/default/production/_ext/163028504/xc32_monitor.o
 .bss           0x0000000000000000        0x0 build/default/production/_ext/163028504/xc32_monitor.o
 .reginfo       0x0000000000000000       0x18 build/default/production/_ext/163028504/xc32_monitor.o
 .MIPS.abiflags
                0x0000000000000000       0x18 build/default/production/_ext/163028504/xc32_monitor.o
 .text.read     0x0000000000000000        0x8 build/default/production/_ext/163028504/xc32_monitor.o
 .text.write    0x0000000000000000        0x8 build/default/production/_ext/163028504/xc32_monitor.o
 .text          0x0000000000000000        0x0 build/default/production/_ext/1865200349/plib_evic.o
 .data          0x0000000000000000        0x0 build/default/production/_ext/1865200349/plib_evic.o
 .bss           0x0000000000000000        0x0 build/default/production/_ext/1865200349/plib_evic.o
 .reginfo       0x0000000000000000       0x18 build/default/production/_ext/1865200349/plib_evic.o
 .MIPS.abiflags
                0x0000000000000000       0x18 build/default/production/_ext/1865200349/plib_evic.o
 .text.EVIC_SourceEnable
                0x0000000000000000       0x28 build/default/production/_ext/1865200349/plib_evic.o
 .text.EVIC_SourceDisable
                0x0000000000000000       0x28 build/default/production/_ext/1865200349/plib_evic.o
 .text.EVIC_SourceIsEnabled
                0x0000000000000000       0x20 build/default/production/_ext/1865200349/plib_evic.o
 .text.EVIC_SourceStatusGet
                0x0000000000000000       0x20 build/default/production/_ext/1865200349/plib_evic.o
 .text.EVIC_SourceStatusSet
                0x0000000000000000       0x28 build/default/production/_ext/1865200349/plib_evic.o
 .text.EVIC_SourceStatusClear
                0x0000000000000000       0x28 build/default/production/_ext/1865200349/plib_evic.o
 .text.EVIC_INT_Enable
                0x0000000000000000       0x18 build/default/production/_ext/1865200349/plib_evic.o
 .text.EVIC_INT_Disable
                0x0000000000000000       0x20 build/default/production/_ext/1865200349/plib_evic.o
 .text.EVIC_INT_Restore
                0x0000000000000000       0x28 build/default/production/_ext/1865200349/plib_evic.o
 .text          0x0000000000000000        0x0 build/default/production/_ext/1360937237/main.o
 .data          0x0000000000000000        0x0 build/default/production/_ext/1360937237/main.o
 .bss           0x0000000000000000        0x0 build/default/production/_ext/1360937237/main.o
 .reginfo       0x0000000000000000       0x18 build/default/production/_ext/1360937237/main.o
 .MIPS.abiflags
                0x0000000000000000       0x18 build/default/production/_ext/1360937237/main.o
 .text          0x0000000000000000        0x0 build/default/production/_ext/1171490990/interrupts.o
 .data          0x0000000000000000        0x0 build/default/production/_ext/1171490990/interrupts.o
 .bss           0x0000000000000000        0x0 build/default/production/_ext/1171490990/interrupts.o
 .reginfo       0x0000000000000000       0x18 build/default/production/_ext/1171490990/interrupts.o
 .MIPS.abiflags
                0x0000000000000000       0x18 build/default/production/_ext/1171490990/interrupts.o
 .text          0x0000000000000000        0x0 build/default/production/_ext/1865254177/plib_gpio.o
 .data          0x0000000000000000        0x0 build/default/production/_ext/1865254177/plib_gpio.o
 .bss           0x0000000000000000        0x0 build/default/production/_ext/1865254177/plib_gpio.o
 .reginfo       0x0000000000000000       0x18 build/default/production/_ext/1865254177/plib_gpio.o
 .MIPS.abiflags
                0x0000000000000000       0x18 build/default/production/_ext/1865254177/plib_gpio.o
 .text.GPIO_PortRead
                0x0000000000000000       0x18 build/default/production/_ext/1865254177/plib_gpio.o
 .text.GPIO_PortWrite
                0x0000000000000000       0x2c build/default/production/_ext/1865254177/plib_gpio.o
 .text.GPIO_PortLatchRead
                0x0000000000000000       0x18 build/default/production/_ext/1865254177/plib_gpio.o
 .text.GPIO_PortSet
                0x0000000000000000       0x1c build/default/production/_ext/1865254177/plib_gpio.o
 .text.GPIO_PortClear
                0x0000000000000000       0x1c build/default/production/_ext/1865254177/plib_gpio.o
 .text.GPIO_PortToggle
                0x0000000000000000       0x1c build/default/production/_ext/1865254177/plib_gpio.o
 .text.GPIO_PortInputEnable
                0x0000000000000000       0x1c build/default/production/_ext/1865254177/plib_gpio.o
 .text.GPIO_PortOutputEnable
                0x0000000000000000       0x1c build/default/production/_ext/1865254177/plib_gpio.o
 .text.GPIO_PortInterruptEnable
                0x0000000000000000       0x1c build/default/production/_ext/1865254177/plib_gpio.o
 .text.GPIO_PortInterruptDisable
                0x0000000000000000       0x1c build/default/production/_ext/1865254177/plib_gpio.o
 .text.GPIO_PinIntDisable
                0x0000000000000000       0x3c build/default/production/_ext/1865254177/plib_gpio.o
 .text          0x0000000000000000        0x0 build/default/production/_ext/60165520/plib_clk.o
 .data          0x0000000000000000        0x0 build/default/production/_ext/60165520/plib_clk.o
 .bss           0x0000000000000000        0x0 build/default/production/_ext/60165520/plib_clk.o
 .reginfo       0x0000000000000000       0x18 build/default/production/_ext/60165520/plib_clk.o
 .MIPS.abiflags
                0x0000000000000000       0x18 build/default/production/_ext/60165520/plib_clk.o
 .text          0x0000000000000000        0x0 build/default/production/_ext/1865657120/plib_uart2.o
 .data          0x0000000000000000        0x0 build/default/production/_ext/1865657120/plib_uart2.o
 .bss           0x0000000000000000        0x0 build/default/production/_ext/1865657120/plib_uart2.o
 .reginfo       0x0000000000000000       0x18 build/default/production/_ext/1865657120/plib_uart2.o
 .MIPS.abiflags
                0x0000000000000000       0x18 build/default/production/_ext/1865657120/plib_uart2.o
 .text.UART2_SerialSetup
                0x0000000000000000      0x134 build/default/production/_ext/1865657120/plib_uart2.o
 .text.UART2_AutoBaudQuery
                0x0000000000000000       0x10 build/default/production/_ext/1865657120/plib_uart2.o
 .text.UART2_AutoBaudSet
                0x0000000000000000       0x18 build/default/production/_ext/1865657120/plib_uart2.o
 .text.UART2_Write
                0x0000000000000000       0xd4 build/default/production/_ext/1865657120/plib_uart2.o
 .text.UART2_ErrorGet
                0x0000000000000000       0x18 build/default/production/_ext/1865657120/plib_uart2.o
 .text.UART2_ReadCallbackRegister
                0x0000000000000000       0x18 build/default/production/_ext/1865657120/plib_uart2.o
 .text.UART2_ReadCountGet
                0x0000000000000000       0x14 build/default/production/_ext/1865657120/plib_uart2.o
 .text.UART2_ReadAbort
                0x0000000000000000       0x44 build/default/production/_ext/1865657120/plib_uart2.o
 .text.UART2_WriteCallbackRegister
                0x0000000000000000       0x18 build/default/production/_ext/1865657120/plib_uart2.o
 .text.UART2_WriteIsBusy
                0x0000000000000000       0x14 build/default/production/_ext/1865657120/plib_uart2.o
 .text.UART2_WriteCountGet
                0x0000000000000000       0x14 build/default/production/_ext/1865657120/plib_uart2.o
 .text.UART2_TransmitComplete
                0x0000000000000000       0x10 build/default/production/_ext/1865657120/plib_uart2.o
 .text          0x0000000000000000        0x0 build/default/production/_ext/1171490990/exceptions.o
 .data          0x0000000000000000        0x0 build/default/production/_ext/1171490990/exceptions.o
 .bss           0x0000000000000000        0x0 build/default/production/_ext/1171490990/exceptions.o
 .reginfo       0x0000000000000000       0x18 build/default/production/_ext/1171490990/exceptions.o
 .MIPS.abiflags
                0x0000000000000000       0x18 build/default/production/_ext/1171490990/exceptions.o
 .text          0x0000000000000000        0x0 build/default/production/_ext/1865161661/plib_dmac.o
 .data          0x0000000000000000        0x0 build/default/production/_ext/1865161661/plib_dmac.o
 .bss           0x0000000000000000        0x0 build/default/production/_ext/1865161661/plib_dmac.o
 .reginfo       0x0000000000000000       0x18 build/default/production/_ext/1865161661/plib_dmac.o
 .MIPS.abiflags
                0x0000000000000000       0x18 build/default/production/_ext/1865161661/plib_dmac.o
 .text.DMAC_ChainTransferSetup
                0x0000000000000000       0xcc build/default/production/_ext/1865161661/plib_dmac.o
 .text.DMAC_ChannelPatternMatchSetup
                0x0000000000000000       0x48 build/default/production/_ext/1865161661/plib_dmac.o
 .text.DMAC_ChannelPatternMatchDisable
                0x0000000000000000       0x28 build/default/production/_ext/1865161661/plib_dmac.o
 .text.DMAC_ChannelDisable
                0x0000000000000000       0x44 build/default/production/_ext/1865161661/plib_dmac.o
 .text.DMAC_ChannelIsBusy
                0x0000000000000000       0x3c build/default/production/_ext/1865161661/plib_dmac.o
 .text.DMAC_ChannelTransferStatusGet
                0x0000000000000000       0x40 build/default/production/_ext/1865161661/plib_dmac.o
 .text.DMAC_ChannelCRCSetup
                0x0000000000000000       0x8c build/default/production/_ext/1865161661/plib_dmac.o
 .text.DMAC_CRCDisable
                0x0000000000000000       0x14 build/default/production/_ext/1865161661/plib_dmac.o
 .text.DMAC_CRCRead
                0x0000000000000000       0x58 build/default/production/_ext/1865161661/plib_dmac.o
 .bss.gCRCSetup
                0x0000000000000000       0x14 build/default/production/_ext/1865161661/plib_dmac.o
 .text          0x0000000000000000        0x0 build/default/production/_ext/1249264884/plib_coretimer.o
 .data          0x0000000000000000        0x0 build/default/production/_ext/1249264884/plib_coretimer.o
 .bss           0x0000000000000000        0x0 build/default/production/_ext/1249264884/plib_coretimer.o
 .reginfo       0x0000000000000000       0x18 build/default/production/_ext/1249264884/plib_coretimer.o
 .MIPS.abiflags
                0x0000000000000000       0x18 build/default/production/_ext/1249264884/plib_coretimer.o
 .text.CORETIMER_Start
                0x0000000000000000       0x5c build/default/production/_ext/1249264884/plib_coretimer.o
 .text.CORETIMER_Stop
                0x0000000000000000       0x28 build/default/production/_ext/1249264884/plib_coretimer.o
 .text.CORETIMER_FrequencyGet
                0x0000000000000000        0xc build/default/production/_ext/1249264884/plib_coretimer.o
 .text.CORETIMER_CompareSet
                0x0000000000000000       0x20 build/default/production/_ext/1249264884/plib_coretimer.o
 .text.CORETIMER_CounterGet
                0x0000000000000000       0x18 build/default/production/_ext/1249264884/plib_coretimer.o
 .text.CORETIMER_CompareHasExpired
                0x0000000000000000       0x24 build/default/production/_ext/1249264884/plib_coretimer.o
 .text.CORETIMER_DelayUs
                0x0000000000000000       0x3c build/default/production/_ext/1249264884/plib_coretimer.o
 .text          0x0000000000000000        0x0 build/default/production/_ext/60181895/plib_tmr2.o
 .data          0x0000000000000000        0x0 build/default/production/_ext/60181895/plib_tmr2.o
 .bss           0x0000000000000000        0x0 build/default/production/_ext/60181895/plib_tmr2.o
 .reginfo       0x0000000000000000       0x18 build/default/production/_ext/60181895/plib_tmr2.o
 .MIPS.abiflags
                0x0000000000000000       0x18 build/default/production/_ext/60181895/plib_tmr2.o
 .text.TMR2_PeriodGet
                0x0000000000000000       0x10 build/default/production/_ext/60181895/plib_tmr2.o
 .text.TMR2_CounterGet
                0x0000000000000000       0x10 build/default/production/_ext/60181895/plib_tmr2.o
 .text.TMR2_FrequencyGet
                0x0000000000000000        0xc build/default/production/_ext/60181895/plib_tmr2.o
 .text.TMR2_InterruptEnable
                0x0000000000000000       0x14 build/default/production/_ext/60181895/plib_tmr2.o
 .text.TMR2_InterruptDisable
                0x0000000000000000       0x14 build/default/production/_ext/60181895/plib_tmr2.o
 .text          0x0000000000000000        0x0 build/default/production/_ext/1360937237/bme280_driver.o
 .data          0x0000000000000000        0x0 build/default/production/_ext/1360937237/bme280_driver.o
 .bss           0x0000000000000000        0x0 build/default/production/_ext/1360937237/bme280_driver.o
 .reginfo       0x0000000000000000       0x18 build/default/production/_ext/1360937237/bme280_driver.o
 .MIPS.abiflags
                0x0000000000000000       0x18 build/default/production/_ext/1360937237/bme280_driver.o
 .text.BME280_GetPressReading
                0x0000000000000000      0x2c8 build/default/production/_ext/1360937237/bme280_driver.o
 .text.BME280_GetHumReading
                0x0000000000000000       0xe4 build/default/production/_ext/1360937237/bme280_driver.o
 .rodata.cst4   0x0000000000000000        0x4 build/default/production/_ext/1360937237/bme280_driver.o
 .text          0x0000000000000000        0x0 C:\Users\huope\AppData\Local\Temp\cce2fMSS.o
 .data          0x0000000000000000        0x0 C:\Users\huope\AppData\Local\Temp\cce2fMSS.o
 .bss           0x0000000000000000        0x0 C:\Users\huope\AppData\Local\Temp\cce2fMSS.o
 .reginfo       0x0000000000000000       0x18 C:\Users\huope\AppData\Local\Temp\cce2fMSS.o
 .MIPS.abiflags
                0x0000000000000000       0x18 C:\Users\huope\AppData\Local\Temp\cce2fMSS.o
 .text          0x0000000000000000        0x0 C:\Users\huope\AppData\Local\Temp\cciHtz9s.o
 .data          0x0000000000000000        0x0 C:\Users\huope\AppData\Local\Temp\cciHtz9s.o
 .bss           0x0000000000000000        0x0 C:\Users\huope\AppData\Local\Temp\cciHtz9s.o
 .reginfo       0x0000000000000000       0x18 C:\Users\huope\AppData\Local\Temp\cciHtz9s.o
 .MIPS.abiflags
                0x0000000000000000       0x18 C:\Users\huope\AppData\Local\Temp\cciHtz9s.o
 .text          0x0000000000000000        0x0 C:\Users\huope\AppData\Local\Temp\ccQtjejd.o
 .data          0x0000000000000000        0x0 C:\Users\huope\AppData\Local\Temp\ccQtjejd.o
 .bss           0x0000000000000000        0x0 C:\Users\huope\AppData\Local\Temp\ccQtjejd.o
 .reginfo       0x0000000000000000       0x18 C:\Users\huope\AppData\Local\Temp\ccQtjejd.o
 .MIPS.abiflags
                0x0000000000000000       0x18 C:\Users\huope\AppData\Local\Temp\ccQtjejd.o
 .text          0x0000000000000000        0x0 C:\Users\huope\AppData\Local\Temp\ccuT72u7.o
 .data          0x0000000000000000        0x0 C:\Users\huope\AppData\Local\Temp\ccuT72u7.o
 .bss           0x0000000000000000        0x0 C:\Users\huope\AppData\Local\Temp\ccuT72u7.o
 .reginfo       0x0000000000000000       0x18 C:\Users\huope\AppData\Local\Temp\ccuT72u7.o
 .MIPS.abiflags
                0x0000000000000000       0x18 C:\Users\huope\AppData\Local\Temp\ccuT72u7.o
 .discard       0x0000000000000000        0x4 C:\Users\huope\AppData\Local\Temp\ccuT72u7.o
 .data          0x0000000000000000        0x0 f:/microchip/xc32/v4.35/bin/bin/../../lib/gcc/pic32mx/8.3.1/../../../../pic32mx/lib/fpu64\pic32_software_reset.o
 .bss           0x0000000000000000        0x0 f:/microchip/xc32/v4.35/bin/bin/../../lib/gcc/pic32mx/8.3.1/../../../../pic32mx/lib/fpu64\pic32_software_reset.o
 .reginfo       0x0000000000000000       0x18 f:/microchip/xc32/v4.35/bin/bin/../../lib/gcc/pic32mx/8.3.1/../../../../pic32mx/lib/fpu64\pic32_software_reset.o
 .MIPS.abiflags
                0x0000000000000000       0x18 f:/microchip/xc32/v4.35/bin/bin/../../lib/gcc/pic32mx/8.3.1/../../../../pic32mx/lib/fpu64\pic32_software_reset.o
 .xc_stack_usage.hdr
                0x0000000000000000        0xe f:/microchip/xc32/v4.35/bin/bin/../../lib/gcc/pic32mx/8.3.1/../../../../pic32mx/lib/fpu64\pic32_software_reset.o
 .xc_stack_usage
                0x0000000000000000       0x24 f:/microchip/xc32/v4.35/bin/bin/../../lib/gcc/pic32mx/8.3.1/../../../../pic32mx/lib/fpu64\pic32_software_reset.o
 .text          0x0000000000000000      0x444 f:/microchip/xc32/v4.35/bin/bin/../../lib/gcc/pic32mx/8.3.1/fpu64\libgcc.a(_divdi3.o)
 .data          0x0000000000000000        0x0 f:/microchip/xc32/v4.35/bin/bin/../../lib/gcc/pic32mx/8.3.1/fpu64\libgcc.a(_divdi3.o)
 .bss           0x0000000000000000        0x0 f:/microchip/xc32/v4.35/bin/bin/../../lib/gcc/pic32mx/8.3.1/fpu64\libgcc.a(_divdi3.o)
 .reginfo       0x0000000000000000       0x18 f:/microchip/xc32/v4.35/bin/bin/../../lib/gcc/pic32mx/8.3.1/fpu64\libgcc.a(_divdi3.o)
 .MIPS.abiflags
                0x0000000000000000       0x18 f:/microchip/xc32/v4.35/bin/bin/../../lib/gcc/pic32mx/8.3.1/fpu64\libgcc.a(_divdi3.o)
 .xc_stack_usage
                0x0000000000000000       0x16 f:/microchip/xc32/v4.35/bin/bin/../../lib/gcc/pic32mx/8.3.1/fpu64\libgcc.a(_divdi3.o)
 .xc_stack_usage.hdr
                0x0000000000000000        0xe f:/microchip/xc32/v4.35/bin/bin/../../lib/gcc/pic32mx/8.3.1/fpu64\libgcc.a(_divdi3.o)
 .data          0x0000000000000000        0x0 f:/microchip/xc32/v4.35/bin/bin/../../lib/gcc/pic32mx/8.3.1/../../../../pic32mx/lib/fpu64\libpic32.a(strlen.o)
 .bss           0x0000000000000000        0x0 f:/microchip/xc32/v4.35/bin/bin/../../lib/gcc/pic32mx/8.3.1/../../../../pic32mx/lib/fpu64\libpic32.a(strlen.o)
 .reginfo       0x0000000000000000       0x18 f:/microchip/xc32/v4.35/bin/bin/../../lib/gcc/pic32mx/8.3.1/../../../../pic32mx/lib/fpu64\libpic32.a(strlen.o)
 .MIPS.abiflags
                0x0000000000000000       0x18 f:/microchip/xc32/v4.35/bin/bin/../../lib/gcc/pic32mx/8.3.1/../../../../pic32mx/lib/fpu64\libpic32.a(strlen.o)
 .xc_stack_usage.hdr
                0x0000000000000000        0xe f:/microchip/xc32/v4.35/bin/bin/../../lib/gcc/pic32mx/8.3.1/../../../../pic32mx/lib/fpu64\libpic32.a(strlen.o)
 .xc_stack_usage
                0x0000000000000000       0x14 f:/microchip/xc32/v4.35/bin/bin/../../lib/gcc/pic32mx/8.3.1/../../../../pic32mx/lib/fpu64\libpic32.a(strlen.o)
 .text          0x0000000000000000        0x0 f:/microchip/xc32/v4.35/bin/bin/../../lib/gcc/pic32mx/8.3.1/../../../../pic32mx/lib/fpu64\libpic32.a(default-on-reset.o)
 .data          0x0000000000000000        0x0 f:/microchip/xc32/v4.35/bin/bin/../../lib/gcc/pic32mx/8.3.1/../../../../pic32mx/lib/fpu64\libpic32.a(default-on-reset.o)
 .bss           0x0000000000000000        0x0 f:/microchip/xc32/v4.35/bin/bin/../../lib/gcc/pic32mx/8.3.1/../../../../pic32mx/lib/fpu64\libpic32.a(default-on-reset.o)
 .reginfo       0x0000000000000000       0x18 f:/microchip/xc32/v4.35/bin/bin/../../lib/gcc/pic32mx/8.3.1/../../../../pic32mx/lib/fpu64\libpic32.a(default-on-reset.o)
 .MIPS.abiflags
                0x0000000000000000       0x18 f:/microchip/xc32/v4.35/bin/bin/../../lib/gcc/pic32mx/8.3.1/../../../../pic32mx/lib/fpu64\libpic32.a(default-on-reset.o)
 .xc_stack_usage
                0x0000000000000000       0x17 f:/microchip/xc32/v4.35/bin/bin/../../lib/gcc/pic32mx/8.3.1/../../../../pic32mx/lib/fpu64\libpic32.a(default-on-reset.o)
 .xc_stack_usage.hdr
                0x0000000000000000        0xe f:/microchip/xc32/v4.35/bin/bin/../../lib/gcc/pic32mx/8.3.1/../../../../pic32mx/lib/fpu64\libpic32.a(default-on-reset.o)
 .text          0x0000000000000000        0x0 f:/microchip/xc32/v4.35/bin/bin/../../lib/gcc/pic32mx/8.3.1/../../../../pic32mx/lib/fpu64\libpic32.a(default-on-bootstrap.o)
 .data          0x0000000000000000        0x0 f:/microchip/xc32/v4.35/bin/bin/../../lib/gcc/pic32mx/8.3.1/../../../../pic32mx/lib/fpu64\libpic32.a(default-on-bootstrap.o)
 .bss           0x0000000000000000        0x0 f:/microchip/xc32/v4.35/bin/bin/../../lib/gcc/pic32mx/8.3.1/../../../../pic32mx/lib/fpu64\libpic32.a(default-on-bootstrap.o)
 .reginfo       0x0000000000000000       0x18 f:/microchip/xc32/v4.35/bin/bin/../../lib/gcc/pic32mx/8.3.1/../../../../pic32mx/lib/fpu64\libpic32.a(default-on-bootstrap.o)
 .MIPS.abiflags
                0x0000000000000000       0x18 f:/microchip/xc32/v4.35/bin/bin/../../lib/gcc/pic32mx/8.3.1/../../../../pic32mx/lib/fpu64\libpic32.a(default-on-bootstrap.o)
 .xc_stack_usage
                0x0000000000000000       0x1b f:/microchip/xc32/v4.35/bin/bin/../../lib/gcc/pic32mx/8.3.1/../../../../pic32mx/lib/fpu64\libpic32.a(default-on-bootstrap.o)
 .xc_stack_usage.hdr
                0x0000000000000000        0xe f:/microchip/xc32/v4.35/bin/bin/../../lib/gcc/pic32mx/8.3.1/../../../../pic32mx/lib/fpu64\libpic32.a(default-on-bootstrap.o)
 .data          0x0000000000000000        0x0 f:/microchip/xc32/v4.35/bin/bin/../../lib/gcc/pic32mx/8.3.1/../../../../pic32mx/lib/fpu64\libpic32.a(default-nmi-handler.o)
 .bss           0x0000000000000000        0x0 f:/microchip/xc32/v4.35/bin/bin/../../lib/gcc/pic32mx/8.3.1/../../../../pic32mx/lib/fpu64\libpic32.a(default-nmi-handler.o)
 .reginfo       0x0000000000000000       0x18 f:/microchip/xc32/v4.35/bin/bin/../../lib/gcc/pic32mx/8.3.1/../../../../pic32mx/lib/fpu64\libpic32.a(default-nmi-handler.o)
 .MIPS.abiflags
                0x0000000000000000       0x18 f:/microchip/xc32/v4.35/bin/bin/../../lib/gcc/pic32mx/8.3.1/../../../../pic32mx/lib/fpu64\libpic32.a(default-nmi-handler.o)
 .xc_stack_usage.hdr
                0x0000000000000000        0xe f:/microchip/xc32/v4.35/bin/bin/../../lib/gcc/pic32mx/8.3.1/../../../../pic32mx/lib/fpu64\libpic32.a(default-nmi-handler.o)
 .xc_stack_usage
                0x0000000000000000       0x1a f:/microchip/xc32/v4.35/bin/bin/../../lib/gcc/pic32mx/8.3.1/../../../../pic32mx/lib/fpu64\libpic32.a(default-nmi-handler.o)
 .data          0x0000000000000000        0x0 f:/microchip/xc32/v4.35/bin/bin/../../lib/gcc/pic32mx/8.3.1/../../../../pic32mx/lib/fpu64\libpic32.a(pic32_data_init_core.o)
 .bss           0x0000000000000000        0x0 f:/microchip/xc32/v4.35/bin/bin/../../lib/gcc/pic32mx/8.3.1/../../../../pic32mx/lib/fpu64\libpic32.a(pic32_data_init_core.o)
 .reginfo       0x0000000000000000       0x18 f:/microchip/xc32/v4.35/bin/bin/../../lib/gcc/pic32mx/8.3.1/../../../../pic32mx/lib/fpu64\libpic32.a(pic32_data_init_core.o)
 .MIPS.abiflags
                0x0000000000000000       0x18 f:/microchip/xc32/v4.35/bin/bin/../../lib/gcc/pic32mx/8.3.1/../../../../pic32mx/lib/fpu64\libpic32.a(pic32_data_init_core.o)
 .xc_stack_usage.hdr
                0x0000000000000000        0xe f:/microchip/xc32/v4.35/bin/bin/../../lib/gcc/pic32mx/8.3.1/../../../../pic32mx/lib/fpu64\libpic32.a(pic32_data_init_core.o)
 .xc_stack_usage
                0x0000000000000000       0x41 f:/microchip/xc32/v4.35/bin/bin/../../lib/gcc/pic32mx/8.3.1/../../../../pic32mx/lib/fpu64\libpic32.a(pic32_data_init_core.o)
 .text          0x0000000000000000        0x0 f:/microchip/xc32/v4.35/bin/bin/../../lib/gcc/pic32mx/8.3.1/../../../../pic32mx/lib/fpu64\libpic32.a(pic32_init_cache.o)
 .data          0x0000000000000000        0x0 f:/microchip/xc32/v4.35/bin/bin/../../lib/gcc/pic32mx/8.3.1/../../../../pic32mx/lib/fpu64\libpic32.a(pic32_init_cache.o)
 .bss           0x0000000000000000        0x0 f:/microchip/xc32/v4.35/bin/bin/../../lib/gcc/pic32mx/8.3.1/../../../../pic32mx/lib/fpu64\libpic32.a(pic32_init_cache.o)
 .reginfo       0x0000000000000000       0x18 f:/microchip/xc32/v4.35/bin/bin/../../lib/gcc/pic32mx/8.3.1/../../../../pic32mx/lib/fpu64\libpic32.a(pic32_init_cache.o)
 .MIPS.abiflags
                0x0000000000000000       0x18 f:/microchip/xc32/v4.35/bin/bin/../../lib/gcc/pic32mx/8.3.1/../../../../pic32mx/lib/fpu64\libpic32.a(pic32_init_cache.o)
 .cache_init.pic32_size_cache
                0x0000000000000000       0x58 f:/microchip/xc32/v4.35/bin/bin/../../lib/gcc/pic32mx/8.3.1/../../../../pic32mx/lib/fpu64\libpic32.a(pic32_init_cache.o)
 .xc_stack_usage.hdr
                0x0000000000000000        0xe f:/microchip/xc32/v4.35/bin/bin/../../lib/gcc/pic32mx/8.3.1/../../../../pic32mx/lib/fpu64\libpic32.a(pic32_init_cache.o)
 .xc_stack_usage
                0x0000000000000000       0x5a f:/microchip/xc32/v4.35/bin/bin/../../lib/gcc/pic32mx/8.3.1/../../../../pic32mx/lib/fpu64\libpic32.a(pic32_init_cache.o)
 .text          0x0000000000000000        0x0 f:/microchip/xc32/v4.35/bin/bin/../../lib/gcc/pic32mx/8.3.1/../../../../pic32mx/lib/fpu64\libpic32.a(pic32_init_tlb_ebi_sqi.o)
 .data          0x0000000000000000        0x0 f:/microchip/xc32/v4.35/bin/bin/../../lib/gcc/pic32mx/8.3.1/../../../../pic32mx/lib/fpu64\libpic32.a(pic32_init_tlb_ebi_sqi.o)
 .bss           0x0000000000000000        0x0 f:/microchip/xc32/v4.35/bin/bin/../../lib/gcc/pic32mx/8.3.1/../../../../pic32mx/lib/fpu64\libpic32.a(pic32_init_tlb_ebi_sqi.o)
 .reginfo       0x0000000000000000       0x18 f:/microchip/xc32/v4.35/bin/bin/../../lib/gcc/pic32mx/8.3.1/../../../../pic32mx/lib/fpu64\libpic32.a(pic32_init_tlb_ebi_sqi.o)
 .MIPS.abiflags
                0x0000000000000000       0x18 f:/microchip/xc32/v4.35/bin/bin/../../lib/gcc/pic32mx/8.3.1/../../../../pic32mx/lib/fpu64\libpic32.a(pic32_init_tlb_ebi_sqi.o)
 .xc_stack_usage.hdr
                0x0000000000000000        0xe f:/microchip/xc32/v4.35/bin/bin/../../lib/gcc/pic32mx/8.3.1/../../../../pic32mx/lib/fpu64\libpic32.a(pic32_init_tlb_ebi_sqi.o)
 .xc_stack_usage
                0x0000000000000000       0x26 f:/microchip/xc32/v4.35/bin/bin/../../lib/gcc/pic32mx/8.3.1/../../../../pic32mx/lib/fpu64\libpic32.a(pic32_init_tlb_ebi_sqi.o)
 .text          0x0000000000000000        0x0 f:/microchip/xc32/v4.35/bin/bin/../../lib/gcc/pic32mx/8.3.1/../../../../pic32mx/lib/fpu64\libpic32.a(general-exception.o)
 .data          0x0000000000000000        0x0 f:/microchip/xc32/v4.35/bin/bin/../../lib/gcc/pic32mx/8.3.1/../../../../pic32mx/lib/fpu64\libpic32.a(general-exception.o)
 .bss           0x0000000000000000        0x0 f:/microchip/xc32/v4.35/bin/bin/../../lib/gcc/pic32mx/8.3.1/../../../../pic32mx/lib/fpu64\libpic32.a(general-exception.o)
 .reginfo       0x0000000000000000       0x18 f:/microchip/xc32/v4.35/bin/bin/../../lib/gcc/pic32mx/8.3.1/../../../../pic32mx/lib/fpu64\libpic32.a(general-exception.o)
 .MIPS.abiflags
                0x0000000000000000       0x18 f:/microchip/xc32/v4.35/bin/bin/../../lib/gcc/pic32mx/8.3.1/../../../../pic32mx/lib/fpu64\libpic32.a(general-exception.o)
 .xc_stack_usage.hdr
                0x0000000000000000        0xe f:/microchip/xc32/v4.35/bin/bin/../../lib/gcc/pic32mx/8.3.1/../../../../pic32mx/lib/fpu64\libpic32.a(general-exception.o)
 .xc_stack_usage
                0x0000000000000000       0x28 f:/microchip/xc32/v4.35/bin/bin/../../lib/gcc/pic32mx/8.3.1/../../../../pic32mx/lib/fpu64\libpic32.a(general-exception.o)
 .text          0x0000000000000000        0x0 f:/microchip/xc32/v4.35/bin/bin/../../lib/gcc/pic32mx/8.3.1/../../../../pic32mx/lib/fpu64\libpic32.a(cache-err-exception.o)
 .data          0x0000000000000000        0x0 f:/microchip/xc32/v4.35/bin/bin/../../lib/gcc/pic32mx/8.3.1/../../../../pic32mx/lib/fpu64\libpic32.a(cache-err-exception.o)
 .bss           0x0000000000000000        0x0 f:/microchip/xc32/v4.35/bin/bin/../../lib/gcc/pic32mx/8.3.1/../../../../pic32mx/lib/fpu64\libpic32.a(cache-err-exception.o)
 .reginfo       0x0000000000000000       0x18 f:/microchip/xc32/v4.35/bin/bin/../../lib/gcc/pic32mx/8.3.1/../../../../pic32mx/lib/fpu64\libpic32.a(cache-err-exception.o)
 .MIPS.abiflags
                0x0000000000000000       0x18 f:/microchip/xc32/v4.35/bin/bin/../../lib/gcc/pic32mx/8.3.1/../../../../pic32mx/lib/fpu64\libpic32.a(cache-err-exception.o)
 .xc_stack_usage.hdr
                0x0000000000000000        0xe f:/microchip/xc32/v4.35/bin/bin/../../lib/gcc/pic32mx/8.3.1/../../../../pic32mx/lib/fpu64\libpic32.a(cache-err-exception.o)
 .xc_stack_usage
                0x0000000000000000       0x2a f:/microchip/xc32/v4.35/bin/bin/../../lib/gcc/pic32mx/8.3.1/../../../../pic32mx/lib/fpu64\libpic32.a(cache-err-exception.o)
 .text          0x0000000000000000        0x0 f:/microchip/xc32/v4.35/bin/bin/../../lib/gcc/pic32mx/8.3.1/../../../../pic32mx/lib/fpu64\libpic32.a(simple-tlb-refill-exception.o)
 .data          0x0000000000000000        0x0 f:/microchip/xc32/v4.35/bin/bin/../../lib/gcc/pic32mx/8.3.1/../../../../pic32mx/lib/fpu64\libpic32.a(simple-tlb-refill-exception.o)
 .bss           0x0000000000000000        0x0 f:/microchip/xc32/v4.35/bin/bin/../../lib/gcc/pic32mx/8.3.1/../../../../pic32mx/lib/fpu64\libpic32.a(simple-tlb-refill-exception.o)
 .reginfo       0x0000000000000000       0x18 f:/microchip/xc32/v4.35/bin/bin/../../lib/gcc/pic32mx/8.3.1/../../../../pic32mx/lib/fpu64\libpic32.a(simple-tlb-refill-exception.o)
 .MIPS.abiflags
                0x0000000000000000       0x18 f:/microchip/xc32/v4.35/bin/bin/../../lib/gcc/pic32mx/8.3.1/../../../../pic32mx/lib/fpu64\libpic32.a(simple-tlb-refill-exception.o)
 .xc_stack_usage.hdr
                0x0000000000000000        0xe f:/microchip/xc32/v4.35/bin/bin/../../lib/gcc/pic32mx/8.3.1/../../../../pic32mx/lib/fpu64\libpic32.a(simple-tlb-refill-exception.o)
 .xc_stack_usage
                0x0000000000000000       0x32 f:/microchip/xc32/v4.35/bin/bin/../../lib/gcc/pic32mx/8.3.1/../../../../pic32mx/lib/fpu64\libpic32.a(simple-tlb-refill-exception.o)
 .text          0x0000000000000000        0x0 f:/microchip/xc32/v4.35/bin/bin/../../lib/gcc/pic32mx/8.3.1/../../../../pic32mx/lib/fpu64\libpic32.a(defaultinterrupt.o)
 .data          0x0000000000000000        0x0 f:/microchip/xc32/v4.35/bin/bin/../../lib/gcc/pic32mx/8.3.1/../../../../pic32mx/lib/fpu64\libpic32.a(defaultinterrupt.o)
 .bss           0x0000000000000000        0x0 f:/microchip/xc32/v4.35/bin/bin/../../lib/gcc/pic32mx/8.3.1/../../../../pic32mx/lib/fpu64\libpic32.a(defaultinterrupt.o)
 .reginfo       0x0000000000000000       0x18 f:/microchip/xc32/v4.35/bin/bin/../../lib/gcc/pic32mx/8.3.1/../../../../pic32mx/lib/fpu64\libpic32.a(defaultinterrupt.o)
 .MIPS.abiflags
                0x0000000000000000       0x18 f:/microchip/xc32/v4.35/bin/bin/../../lib/gcc/pic32mx/8.3.1/../../../../pic32mx/lib/fpu64\libpic32.a(defaultinterrupt.o)
 .xc_stack_usage
                0x0000000000000000       0x1f f:/microchip/xc32/v4.35/bin/bin/../../lib/gcc/pic32mx/8.3.1/../../../../pic32mx/lib/fpu64\libpic32.a(defaultinterrupt.o)
 .xc_stack_usage.hdr
                0x0000000000000000        0xe f:/microchip/xc32/v4.35/bin/bin/../../lib/gcc/pic32mx/8.3.1/../../../../pic32mx/lib/fpu64\libpic32.a(defaultinterrupt.o)
 .text          0x0000000000000000        0x0 f:/microchip/xc32/v4.35/bin/bin/../../lib/gcc/pic32mx/8.3.1/../../../../pic32mx/lib/fpu64\libc-musl.a(__sio_sprintf_dn.o)
 .data          0x0000000000000000        0x0 f:/microchip/xc32/v4.35/bin/bin/../../lib/gcc/pic32mx/8.3.1/../../../../pic32mx/lib/fpu64\libc-musl.a(__sio_sprintf_dn.o)
 .bss           0x0000000000000000        0x0 f:/microchip/xc32/v4.35/bin/bin/../../lib/gcc/pic32mx/8.3.1/../../../../pic32mx/lib/fpu64\libc-musl.a(__sio_sprintf_dn.o)
 .reginfo       0x0000000000000000       0x18 f:/microchip/xc32/v4.35/bin/bin/../../lib/gcc/pic32mx/8.3.1/../../../../pic32mx/lib/fpu64\libc-musl.a(__sio_sprintf_dn.o)
 .MIPS.abiflags
                0x0000000000000000       0x18 f:/microchip/xc32/v4.35/bin/bin/../../lib/gcc/pic32mx/8.3.1/../../../../pic32mx/lib/fpu64\libc-musl.a(__sio_sprintf_dn.o)
 .xc_stack_usage
                0x0000000000000000       0x3a f:/microchip/xc32/v4.35/bin/bin/../../lib/gcc/pic32mx/8.3.1/../../../../pic32mx/lib/fpu64\libc-musl.a(__sio_sprintf_dn.o)
 .text.__sio_sprintf_dn
                0x0000000000000000       0x2c f:/microchip/xc32/v4.35/bin/bin/../../lib/gcc/pic32mx/8.3.1/../../../../pic32mx/lib/fpu64\libc-musl.a(__sio_sprintf_dn.o)
 .xc_stack_usage.hdr
                0x0000000000000000        0xe f:/microchip/xc32/v4.35/bin/bin/../../lib/gcc/pic32mx/8.3.1/../../../../pic32mx/lib/fpu64\libc-musl.a(__sio_sprintf_dn.o)
 .note.GNU-stack
                0x0000000000000000        0x0 f:/microchip/xc32/v4.35/bin/bin/../../lib/gcc/pic32mx/8.3.1/../../../../pic32mx/lib/fpu64\libc-musl.a(__sio_sprintf_dn.o)
 .text          0x0000000000000000        0x0 f:/microchip/xc32/v4.35/bin/bin/../../lib/gcc/pic32mx/8.3.1/../../../../pic32mx/lib/fpu64\libc-musl.a(__fmt_d.o)
 .data          0x0000000000000000        0x0 f:/microchip/xc32/v4.35/bin/bin/../../lib/gcc/pic32mx/8.3.1/../../../../pic32mx/lib/fpu64\libc-musl.a(__fmt_d.o)
 .bss           0x0000000000000000        0x0 f:/microchip/xc32/v4.35/bin/bin/../../lib/gcc/pic32mx/8.3.1/../../../../pic32mx/lib/fpu64\libc-musl.a(__fmt_d.o)
 .reginfo       0x0000000000000000       0x18 f:/microchip/xc32/v4.35/bin/bin/../../lib/gcc/pic32mx/8.3.1/../../../../pic32mx/lib/fpu64\libc-musl.a(__fmt_d.o)
 .MIPS.abiflags
                0x0000000000000000       0x18 f:/microchip/xc32/v4.35/bin/bin/../../lib/gcc/pic32mx/8.3.1/../../../../pic32mx/lib/fpu64\libc-musl.a(__fmt_d.o)
 .xc_stack_usage
                0x0000000000000000       0x15 f:/microchip/xc32/v4.35/bin/bin/../../lib/gcc/pic32mx/8.3.1/../../../../pic32mx/lib/fpu64\libc-musl.a(__fmt_d.o)
 .xc_stack_usage.hdr
                0x0000000000000000        0xe f:/microchip/xc32/v4.35/bin/bin/../../lib/gcc/pic32mx/8.3.1/../../../../pic32mx/lib/fpu64\libc-musl.a(__fmt_d.o)
 .note.GNU-stack
                0x0000000000000000        0x0 f:/microchip/xc32/v4.35/bin/bin/../../lib/gcc/pic32mx/8.3.1/../../../../pic32mx/lib/fpu64\libc-musl.a(__fmt_d.o)
 .text          0x0000000000000000        0x0 f:/microchip/xc32/v4.35/bin/bin/../../lib/gcc/pic32mx/8.3.1/../../../../pic32mx/lib/fpu64\libc-musl.a(__pop_int.o)
 .data          0x0000000000000000        0x0 f:/microchip/xc32/v4.35/bin/bin/../../lib/gcc/pic32mx/8.3.1/../../../../pic32mx/lib/fpu64\libc-musl.a(__pop_int.o)
 .bss           0x0000000000000000        0x0 f:/microchip/xc32/v4.35/bin/bin/../../lib/gcc/pic32mx/8.3.1/../../../../pic32mx/lib/fpu64\libc-musl.a(__pop_int.o)
 .reginfo       0x0000000000000000       0x18 f:/microchip/xc32/v4.35/bin/bin/../../lib/gcc/pic32mx/8.3.1/../../../../pic32mx/lib/fpu64\libc-musl.a(__pop_int.o)
 .MIPS.abiflags
                0x0000000000000000       0x18 f:/microchip/xc32/v4.35/bin/bin/../../lib/gcc/pic32mx/8.3.1/../../../../pic32mx/lib/fpu64\libc-musl.a(__pop_int.o)
 .xc_stack_usage
                0x0000000000000000       0x17 f:/microchip/xc32/v4.35/bin/bin/../../lib/gcc/pic32mx/8.3.1/../../../../pic32mx/lib/fpu64\libc-musl.a(__pop_int.o)
 .xc_stack_usage.hdr
                0x0000000000000000        0xe f:/microchip/xc32/v4.35/bin/bin/../../lib/gcc/pic32mx/8.3.1/../../../../pic32mx/lib/fpu64\libc-musl.a(__pop_int.o)
 .note.GNU-stack
                0x0000000000000000        0x0 f:/microchip/xc32/v4.35/bin/bin/../../lib/gcc/pic32mx/8.3.1/../../../../pic32mx/lib/fpu64\libc-musl.a(__pop_int.o)
 .text          0x0000000000000000        0x0 f:/microchip/xc32/v4.35/bin/bin/../../lib/gcc/pic32mx/8.3.1/../../../../pic32mx/lib/fpu64\libc-musl.a(__pop_ptr.o)
 .data          0x0000000000000000        0x0 f:/microchip/xc32/v4.35/bin/bin/../../lib/gcc/pic32mx/8.3.1/../../../../pic32mx/lib/fpu64\libc-musl.a(__pop_ptr.o)
 .bss           0x0000000000000000        0x0 f:/microchip/xc32/v4.35/bin/bin/../../lib/gcc/pic32mx/8.3.1/../../../../pic32mx/lib/fpu64\libc-musl.a(__pop_ptr.o)
 .reginfo       0x0000000000000000       0x18 f:/microchip/xc32/v4.35/bin/bin/../../lib/gcc/pic32mx/8.3.1/../../../../pic32mx/lib/fpu64\libc-musl.a(__pop_ptr.o)
 .MIPS.abiflags
                0x0000000000000000       0x18 f:/microchip/xc32/v4.35/bin/bin/../../lib/gcc/pic32mx/8.3.1/../../../../pic32mx/lib/fpu64\libc-musl.a(__pop_ptr.o)
 .xc_stack_usage
                0x0000000000000000       0x17 f:/microchip/xc32/v4.35/bin/bin/../../lib/gcc/pic32mx/8.3.1/../../../../pic32mx/lib/fpu64\libc-musl.a(__pop_ptr.o)
 .xc_stack_usage.hdr
                0x0000000000000000        0xe f:/microchip/xc32/v4.35/bin/bin/../../lib/gcc/pic32mx/8.3.1/../../../../pic32mx/lib/fpu64\libc-musl.a(__pop_ptr.o)
 .note.GNU-stack
                0x0000000000000000        0x0 f:/microchip/xc32/v4.35/bin/bin/../../lib/gcc/pic32mx/8.3.1/../../../../pic32mx/lib/fpu64\libc-musl.a(__pop_ptr.o)
 .text          0x0000000000000000        0x0 f:/microchip/xc32/v4.35/bin/bin/../../lib/gcc/pic32mx/8.3.1/../../../../pic32mx/lib/fpu64\libc-musl.a(__printf_core.o)
 .data          0x0000000000000000        0x0 f:/microchip/xc32/v4.35/bin/bin/../../lib/gcc/pic32mx/8.3.1/../../../../pic32mx/lib/fpu64\libc-musl.a(__printf_core.o)
 .bss           0x0000000000000000        0x0 f:/microchip/xc32/v4.35/bin/bin/../../lib/gcc/pic32mx/8.3.1/../../../../pic32mx/lib/fpu64\libc-musl.a(__printf_core.o)
 .reginfo       0x0000000000000000       0x18 f:/microchip/xc32/v4.35/bin/bin/../../lib/gcc/pic32mx/8.3.1/../../../../pic32mx/lib/fpu64\libc-musl.a(__printf_core.o)
 .MIPS.abiflags
                0x0000000000000000       0x18 f:/microchip/xc32/v4.35/bin/bin/../../lib/gcc/pic32mx/8.3.1/../../../../pic32mx/lib/fpu64\libc-musl.a(__printf_core.o)
 .xc_stack_usage
                0x0000000000000000       0xaf f:/microchip/xc32/v4.35/bin/bin/../../lib/gcc/pic32mx/8.3.1/../../../../pic32mx/lib/fpu64\libc-musl.a(__printf_core.o)
 .xc_stack_usage.hdr
                0x0000000000000000        0xe f:/microchip/xc32/v4.35/bin/bin/../../lib/gcc/pic32mx/8.3.1/../../../../pic32mx/lib/fpu64\libc-musl.a(__printf_core.o)
 .note.GNU-stack
                0x0000000000000000        0x0 f:/microchip/xc32/v4.35/bin/bin/../../lib/gcc/pic32mx/8.3.1/../../../../pic32mx/lib/fpu64\libc-musl.a(__printf_core.o)
 .text          0x0000000000000000        0x0 f:/microchip/xc32/v4.35/bin/bin/../../lib/gcc/pic32mx/8.3.1/../../../../pic32mx/lib/fpu64\libc-musl.a(atoi.o)
 .data          0x0000000000000000        0x0 f:/microchip/xc32/v4.35/bin/bin/../../lib/gcc/pic32mx/8.3.1/../../../../pic32mx/lib/fpu64\libc-musl.a(atoi.o)
 .bss           0x0000000000000000        0x0 f:/microchip/xc32/v4.35/bin/bin/../../lib/gcc/pic32mx/8.3.1/../../../../pic32mx/lib/fpu64\libc-musl.a(atoi.o)
 .reginfo       0x0000000000000000       0x18 f:/microchip/xc32/v4.35/bin/bin/../../lib/gcc/pic32mx/8.3.1/../../../../pic32mx/lib/fpu64\libc-musl.a(atoi.o)
 .MIPS.abiflags
                0x0000000000000000       0x18 f:/microchip/xc32/v4.35/bin/bin/../../lib/gcc/pic32mx/8.3.1/../../../../pic32mx/lib/fpu64\libc-musl.a(atoi.o)
 .xc_stack_usage
                0x0000000000000000       0x12 f:/microchip/xc32/v4.35/bin/bin/../../lib/gcc/pic32mx/8.3.1/../../../../pic32mx/lib/fpu64\libc-musl.a(atoi.o)
 .xc_stack_usage.hdr
                0x0000000000000000        0xe f:/microchip/xc32/v4.35/bin/bin/../../lib/gcc/pic32mx/8.3.1/../../../../pic32mx/lib/fpu64\libc-musl.a(atoi.o)
 .note.GNU-stack
                0x0000000000000000        0x0 f:/microchip/xc32/v4.35/bin/bin/../../lib/gcc/pic32mx/8.3.1/../../../../pic32mx/lib/fpu64\libc-musl.a(atoi.o)
 .text          0x0000000000000000        0x0 f:/microchip/xc32/v4.35/bin/bin/../../lib/gcc/pic32mx/8.3.1/../../../../pic32mx/lib/fpu64\libc-musl.a(memcpy.o)
 .data          0x0000000000000000        0x0 f:/microchip/xc32/v4.35/bin/bin/../../lib/gcc/pic32mx/8.3.1/../../../../pic32mx/lib/fpu64\libc-musl.a(memcpy.o)
 .bss           0x0000000000000000        0x0 f:/microchip/xc32/v4.35/bin/bin/../../lib/gcc/pic32mx/8.3.1/../../../../pic32mx/lib/fpu64\libc-musl.a(memcpy.o)
 .reginfo       0x0000000000000000       0x18 f:/microchip/xc32/v4.35/bin/bin/../../lib/gcc/pic32mx/8.3.1/../../../../pic32mx/lib/fpu64\libc-musl.a(memcpy.o)
 .MIPS.abiflags
                0x0000000000000000       0x18 f:/microchip/xc32/v4.35/bin/bin/../../lib/gcc/pic32mx/8.3.1/../../../../pic32mx/lib/fpu64\libc-musl.a(memcpy.o)
 .xc_stack_usage
                0x0000000000000000       0x14 f:/microchip/xc32/v4.35/bin/bin/../../lib/gcc/pic32mx/8.3.1/../../../../pic32mx/lib/fpu64\libc-musl.a(memcpy.o)
 .xc_stack_usage.hdr
                0x0000000000000000        0xe f:/microchip/xc32/v4.35/bin/bin/../../lib/gcc/pic32mx/8.3.1/../../../../pic32mx/lib/fpu64\libc-musl.a(memcpy.o)
 .note.GNU-stack
                0x0000000000000000        0x0 f:/microchip/xc32/v4.35/bin/bin/../../lib/gcc/pic32mx/8.3.1/../../../../pic32mx/lib/fpu64\libc-musl.a(memcpy.o)
 .text          0x0000000000000000        0x0 f:/microchip/xc32/v4.35/bin/bin/../../lib/gcc/pic32mx/8.3.1/../../../../pic32mx/lib/fpu64\libc-musl.a(memset.o)
 .data          0x0000000000000000        0x0 f:/microchip/xc32/v4.35/bin/bin/../../lib/gcc/pic32mx/8.3.1/../../../../pic32mx/lib/fpu64\libc-musl.a(memset.o)
 .bss           0x0000000000000000        0x0 f:/microchip/xc32/v4.35/bin/bin/../../lib/gcc/pic32mx/8.3.1/../../../../pic32mx/lib/fpu64\libc-musl.a(memset.o)
 .reginfo       0x0000000000000000       0x18 f:/microchip/xc32/v4.35/bin/bin/../../lib/gcc/pic32mx/8.3.1/../../../../pic32mx/lib/fpu64\libc-musl.a(memset.o)
 .MIPS.abiflags
                0x0000000000000000       0x18 f:/microchip/xc32/v4.35/bin/bin/../../lib/gcc/pic32mx/8.3.1/../../../../pic32mx/lib/fpu64\libc-musl.a(memset.o)
 .xc_stack_usage
                0x0000000000000000       0x14 f:/microchip/xc32/v4.35/bin/bin/../../lib/gcc/pic32mx/8.3.1/../../../../pic32mx/lib/fpu64\libc-musl.a(memset.o)
 .xc_stack_usage.hdr
                0x0000000000000000        0xe f:/microchip/xc32/v4.35/bin/bin/../../lib/gcc/pic32mx/8.3.1/../../../../pic32mx/lib/fpu64\libc-musl.a(memset.o)
 .note.GNU-stack
                0x0000000000000000        0x0 f:/microchip/xc32/v4.35/bin/bin/../../lib/gcc/pic32mx/8.3.1/../../../../pic32mx/lib/fpu64\libc-musl.a(memset.o)
 .text          0x0000000000000000        0x0 f:/microchip/xc32/v4.35/bin/bin/../../lib/gcc/pic32mx/8.3.1/../../../../pic32mx/lib/fpu64\libc-musl.a(tolower.o)
 .data          0x0000000000000000        0x0 f:/microchip/xc32/v4.35/bin/bin/../../lib/gcc/pic32mx/8.3.1/../../../../pic32mx/lib/fpu64\libc-musl.a(tolower.o)
 .bss           0x0000000000000000        0x0 f:/microchip/xc32/v4.35/bin/bin/../../lib/gcc/pic32mx/8.3.1/../../../../pic32mx/lib/fpu64\libc-musl.a(tolower.o)
 .reginfo       0x0000000000000000       0x18 f:/microchip/xc32/v4.35/bin/bin/../../lib/gcc/pic32mx/8.3.1/../../../../pic32mx/lib/fpu64\libc-musl.a(tolower.o)
 .MIPS.abiflags
                0x0000000000000000       0x18 f:/microchip/xc32/v4.35/bin/bin/../../lib/gcc/pic32mx/8.3.1/../../../../pic32mx/lib/fpu64\libc-musl.a(tolower.o)
 .xc_stack_usage
                0x0000000000000000       0x2e f:/microchip/xc32/v4.35/bin/bin/../../lib/gcc/pic32mx/8.3.1/../../../../pic32mx/lib/fpu64\libc-musl.a(tolower.o)
 .text.__tolower_l
                0x0000000000000000       0x1c f:/microchip/xc32/v4.35/bin/bin/../../lib/gcc/pic32mx/8.3.1/../../../../pic32mx/lib/fpu64\libc-musl.a(tolower.o)
 .xc_stack_usage.hdr
                0x0000000000000000        0xe f:/microchip/xc32/v4.35/bin/bin/../../lib/gcc/pic32mx/8.3.1/../../../../pic32mx/lib/fpu64\libc-musl.a(tolower.o)
 .note.GNU-stack
                0x0000000000000000        0x0 f:/microchip/xc32/v4.35/bin/bin/../../lib/gcc/pic32mx/8.3.1/../../../../pic32mx/lib/fpu64\libc-musl.a(tolower.o)
 .text          0x0000000000000000        0x0 f:/microchip/xc32/v4.35/bin/bin/../../lib/gcc/pic32mx/8.3.1/../../../../pic32mx/lib/fpu64\libc-musl.a(__int_vsprintf.o)
 .data          0x0000000000000000        0x0 f:/microchip/xc32/v4.35/bin/bin/../../lib/gcc/pic32mx/8.3.1/../../../../pic32mx/lib/fpu64\libc-musl.a(__int_vsprintf.o)
 .bss           0x0000000000000000        0x0 f:/microchip/xc32/v4.35/bin/bin/../../lib/gcc/pic32mx/8.3.1/../../../../pic32mx/lib/fpu64\libc-musl.a(__int_vsprintf.o)
 .reginfo       0x0000000000000000       0x18 f:/microchip/xc32/v4.35/bin/bin/../../lib/gcc/pic32mx/8.3.1/../../../../pic32mx/lib/fpu64\libc-musl.a(__int_vsprintf.o)
 .MIPS.abiflags
                0x0000000000000000       0x18 f:/microchip/xc32/v4.35/bin/bin/../../lib/gcc/pic32mx/8.3.1/../../../../pic32mx/lib/fpu64\libc-musl.a(__int_vsprintf.o)
 .xc_stack_usage
                0x0000000000000000       0x18 f:/microchip/xc32/v4.35/bin/bin/../../lib/gcc/pic32mx/8.3.1/../../../../pic32mx/lib/fpu64\libc-musl.a(__int_vsprintf.o)
 .xc_stack_usage.hdr
                0x0000000000000000        0xe f:/microchip/xc32/v4.35/bin/bin/../../lib/gcc/pic32mx/8.3.1/../../../../pic32mx/lib/fpu64\libc-musl.a(__int_vsprintf.o)
 .note.GNU-stack
                0x0000000000000000        0x0 f:/microchip/xc32/v4.35/bin/bin/../../lib/gcc/pic32mx/8.3.1/../../../../pic32mx/lib/fpu64\libc-musl.a(__int_vsprintf.o)
 .text          0x0000000000000000        0x0 f:/microchip/xc32/v4.35/bin/bin/../../lib/gcc/pic32mx/8.3.1/../../../../pic32mx/lib/fpu64\libc-musl.a(__cvt_u.o)
 .data          0x0000000000000000        0x0 f:/microchip/xc32/v4.35/bin/bin/../../lib/gcc/pic32mx/8.3.1/../../../../pic32mx/lib/fpu64\libc-musl.a(__cvt_u.o)
 .bss           0x0000000000000000        0x0 f:/microchip/xc32/v4.35/bin/bin/../../lib/gcc/pic32mx/8.3.1/../../../../pic32mx/lib/fpu64\libc-musl.a(__cvt_u.o)
 .reginfo       0x0000000000000000       0x18 f:/microchip/xc32/v4.35/bin/bin/../../lib/gcc/pic32mx/8.3.1/../../../../pic32mx/lib/fpu64\libc-musl.a(__cvt_u.o)
 .MIPS.abiflags
                0x0000000000000000       0x18 f:/microchip/xc32/v4.35/bin/bin/../../lib/gcc/pic32mx/8.3.1/../../../../pic32mx/lib/fpu64\libc-musl.a(__cvt_u.o)
 .xc_stack_usage
                0x0000000000000000       0x15 f:/microchip/xc32/v4.35/bin/bin/../../lib/gcc/pic32mx/8.3.1/../../../../pic32mx/lib/fpu64\libc-musl.a(__cvt_u.o)
 .xc_stack_usage.hdr
                0x0000000000000000        0xe f:/microchip/xc32/v4.35/bin/bin/../../lib/gcc/pic32mx/8.3.1/../../../../pic32mx/lib/fpu64\libc-musl.a(__cvt_u.o)
 .note.GNU-stack
                0x0000000000000000        0x0 f:/microchip/xc32/v4.35/bin/bin/../../lib/gcc/pic32mx/8.3.1/../../../../pic32mx/lib/fpu64\libc-musl.a(__cvt_u.o)
 .text          0x0000000000000000        0x0 f:/microchip/xc32/v4.35/bin/bin/../../lib/gcc/pic32mx/8.3.1/../../../../pic32mx/lib/fpu64\libc-musl.a(__pop_float.o)
 .data          0x0000000000000000        0x0 f:/microchip/xc32/v4.35/bin/bin/../../lib/gcc/pic32mx/8.3.1/../../../../pic32mx/lib/fpu64\libc-musl.a(__pop_float.o)
 .bss           0x0000000000000000        0x0 f:/microchip/xc32/v4.35/bin/bin/../../lib/gcc/pic32mx/8.3.1/../../../../pic32mx/lib/fpu64\libc-musl.a(__pop_float.o)
 .reginfo       0x0000000000000000       0x18 f:/microchip/xc32/v4.35/bin/bin/../../lib/gcc/pic32mx/8.3.1/../../../../pic32mx/lib/fpu64\libc-musl.a(__pop_float.o)
 .MIPS.abiflags
                0x0000000000000000       0x18 f:/microchip/xc32/v4.35/bin/bin/../../lib/gcc/pic32mx/8.3.1/../../../../pic32mx/lib/fpu64\libc-musl.a(__pop_float.o)
 .xc_stack_usage
                0x0000000000000000       0x19 f:/microchip/xc32/v4.35/bin/bin/../../lib/gcc/pic32mx/8.3.1/../../../../pic32mx/lib/fpu64\libc-musl.a(__pop_float.o)
 .xc_stack_usage.hdr
                0x0000000000000000        0xe f:/microchip/xc32/v4.35/bin/bin/../../lib/gcc/pic32mx/8.3.1/../../../../pic32mx/lib/fpu64\libc-musl.a(__pop_float.o)
 .note.GNU-stack
                0x0000000000000000        0x0 f:/microchip/xc32/v4.35/bin/bin/../../lib/gcc/pic32mx/8.3.1/../../../../pic32mx/lib/fpu64\libc-musl.a(__pop_float.o)
 .text          0x0000000000000000        0x0 f:/microchip/xc32/v4.35/bin/bin/../../lib/gcc/pic32mx/8.3.1/../../../../pic32mx/lib/fpu64\libc-musl.a(__int_vsnprintf.o)
 .data          0x0000000000000000        0x0 f:/microchip/xc32/v4.35/bin/bin/../../lib/gcc/pic32mx/8.3.1/../../../../pic32mx/lib/fpu64\libc-musl.a(__int_vsnprintf.o)
 .bss           0x0000000000000000        0x0 f:/microchip/xc32/v4.35/bin/bin/../../lib/gcc/pic32mx/8.3.1/../../../../pic32mx/lib/fpu64\libc-musl.a(__int_vsnprintf.o)
 .reginfo       0x0000000000000000       0x18 f:/microchip/xc32/v4.35/bin/bin/../../lib/gcc/pic32mx/8.3.1/../../../../pic32mx/lib/fpu64\libc-musl.a(__int_vsnprintf.o)
 .MIPS.abiflags
                0x0000000000000000       0x18 f:/microchip/xc32/v4.35/bin/bin/../../lib/gcc/pic32mx/8.3.1/../../../../pic32mx/lib/fpu64\libc-musl.a(__int_vsnprintf.o)
 .xc_stack_usage
                0x0000000000000000       0x19 f:/microchip/xc32/v4.35/bin/bin/../../lib/gcc/pic32mx/8.3.1/../../../../pic32mx/lib/fpu64\libc-musl.a(__int_vsnprintf.o)
 .xc_stack_usage.hdr
                0x0000000000000000        0xe f:/microchip/xc32/v4.35/bin/bin/../../lib/gcc/pic32mx/8.3.1/../../../../pic32mx/lib/fpu64\libc-musl.a(__int_vsnprintf.o)
 .note.GNU-stack
                0x0000000000000000        0x0 f:/microchip/xc32/v4.35/bin/bin/../../lib/gcc/pic32mx/8.3.1/../../../../pic32mx/lib/fpu64\libc-musl.a(__int_vsnprintf.o)
 .text          0x0000000000000000        0x0 f:/microchip/xc32/v4.35/bin/bin/../../lib/gcc/pic32mx/8.3.1/../../../../pic32mx/lib/fpu64\libc-musl.a(__int_vfprintf.o)
 .data          0x0000000000000000        0x0 f:/microchip/xc32/v4.35/bin/bin/../../lib/gcc/pic32mx/8.3.1/../../../../pic32mx/lib/fpu64\libc-musl.a(__int_vfprintf.o)
 .bss           0x0000000000000000        0x0 f:/microchip/xc32/v4.35/bin/bin/../../lib/gcc/pic32mx/8.3.1/../../../../pic32mx/lib/fpu64\libc-musl.a(__int_vfprintf.o)
 .reginfo       0x0000000000000000       0x18 f:/microchip/xc32/v4.35/bin/bin/../../lib/gcc/pic32mx/8.3.1/../../../../pic32mx/lib/fpu64\libc-musl.a(__int_vfprintf.o)
 .MIPS.abiflags
                0x0000000000000000       0x18 f:/microchip/xc32/v4.35/bin/bin/../../lib/gcc/pic32mx/8.3.1/../../../../pic32mx/lib/fpu64\libc-musl.a(__int_vfprintf.o)
 .xc_stack_usage
                0x0000000000000000       0x18 f:/microchip/xc32/v4.35/bin/bin/../../lib/gcc/pic32mx/8.3.1/../../../../pic32mx/lib/fpu64\libc-musl.a(__int_vfprintf.o)
 .xc_stack_usage.hdr
                0x0000000000000000        0xe f:/microchip/xc32/v4.35/bin/bin/../../lib/gcc/pic32mx/8.3.1/../../../../pic32mx/lib/fpu64\libc-musl.a(__int_vfprintf.o)
 .note.GNU-stack
                0x0000000000000000        0x0 f:/microchip/xc32/v4.35/bin/bin/../../lib/gcc/pic32mx/8.3.1/../../../../pic32mx/lib/fpu64\libc-musl.a(__int_vfprintf.o)
 .data          0x0000000000000000        0x0 f:/microchip/xc32/v4.35/bin/bin/../../lib/gcc/pic32mx/8.3.1/fpu64\libgcc.a(_udivdi3.o)
 .bss           0x0000000000000000        0x0 f:/microchip/xc32/v4.35/bin/bin/../../lib/gcc/pic32mx/8.3.1/fpu64\libgcc.a(_udivdi3.o)
 .reginfo       0x0000000000000000       0x18 f:/microchip/xc32/v4.35/bin/bin/../../lib/gcc/pic32mx/8.3.1/fpu64\libgcc.a(_udivdi3.o)
 .MIPS.abiflags
                0x0000000000000000       0x18 f:/microchip/xc32/v4.35/bin/bin/../../lib/gcc/pic32mx/8.3.1/fpu64\libgcc.a(_udivdi3.o)
 .xc_stack_usage
                0x0000000000000000       0x17 f:/microchip/xc32/v4.35/bin/bin/../../lib/gcc/pic32mx/8.3.1/fpu64\libgcc.a(_udivdi3.o)
 .xc_stack_usage.hdr
                0x0000000000000000        0xe f:/microchip/xc32/v4.35/bin/bin/../../lib/gcc/pic32mx/8.3.1/fpu64\libgcc.a(_udivdi3.o)
 .data          0x0000000000000000        0x0 f:/microchip/xc32/v4.35/bin/bin/../../lib/gcc/pic32mx/8.3.1/fpu64\libgcc.a(_umoddi3.o)
 .bss           0x0000000000000000        0x0 f:/microchip/xc32/v4.35/bin/bin/../../lib/gcc/pic32mx/8.3.1/fpu64\libgcc.a(_umoddi3.o)
 .reginfo       0x0000000000000000       0x18 f:/microchip/xc32/v4.35/bin/bin/../../lib/gcc/pic32mx/8.3.1/fpu64\libgcc.a(_umoddi3.o)
 .MIPS.abiflags
                0x0000000000000000       0x18 f:/microchip/xc32/v4.35/bin/bin/../../lib/gcc/pic32mx/8.3.1/fpu64\libgcc.a(_umoddi3.o)
 .xc_stack_usage
                0x0000000000000000       0x17 f:/microchip/xc32/v4.35/bin/bin/../../lib/gcc/pic32mx/8.3.1/fpu64\libgcc.a(_umoddi3.o)
 .xc_stack_usage.hdr
                0x0000000000000000        0xe f:/microchip/xc32/v4.35/bin/bin/../../lib/gcc/pic32mx/8.3.1/fpu64\libgcc.a(_umoddi3.o)
 .text          0x0000000000000000        0x0 f:/microchip/xc32/v4.35/bin/bin/../../lib/gcc/pic32mx/8.3.1/../../../../pic32mx/lib/fpu64\libpic32.a(errno.o)
 .data          0x0000000000000000        0x0 f:/microchip/xc32/v4.35/bin/bin/../../lib/gcc/pic32mx/8.3.1/../../../../pic32mx/lib/fpu64\libpic32.a(errno.o)
 .bss           0x0000000000000000        0x0 f:/microchip/xc32/v4.35/bin/bin/../../lib/gcc/pic32mx/8.3.1/../../../../pic32mx/lib/fpu64\libpic32.a(errno.o)
 .reginfo       0x0000000000000000       0x18 f:/microchip/xc32/v4.35/bin/bin/../../lib/gcc/pic32mx/8.3.1/../../../../pic32mx/lib/fpu64\libpic32.a(errno.o)
 .MIPS.abiflags
                0x0000000000000000       0x18 f:/microchip/xc32/v4.35/bin/bin/../../lib/gcc/pic32mx/8.3.1/../../../../pic32mx/lib/fpu64\libpic32.a(errno.o)
 .xc_stack_usage.hdr
                0x0000000000000000        0xe f:/microchip/xc32/v4.35/bin/bin/../../lib/gcc/pic32mx/8.3.1/../../../../pic32mx/lib/fpu64\libpic32.a(errno.o)
 .data          0x0000000000000000        0x0 f:/microchip/xc32/v4.35/bin/bin/../../lib/gcc/pic32mx/8.3.1/../../../../pic32mx/lib/fpu64\libpic32.a(pic32_data_init_clear.o)
 .bss           0x0000000000000000        0x0 f:/microchip/xc32/v4.35/bin/bin/../../lib/gcc/pic32mx/8.3.1/../../../../pic32mx/lib/fpu64\libpic32.a(pic32_data_init_clear.o)
 .reginfo       0x0000000000000000       0x18 f:/microchip/xc32/v4.35/bin/bin/../../lib/gcc/pic32mx/8.3.1/../../../../pic32mx/lib/fpu64\libpic32.a(pic32_data_init_clear.o)
 .MIPS.abiflags
                0x0000000000000000       0x18 f:/microchip/xc32/v4.35/bin/bin/../../lib/gcc/pic32mx/8.3.1/../../../../pic32mx/lib/fpu64\libpic32.a(pic32_data_init_clear.o)
 .xc_stack_usage.hdr
                0x0000000000000000        0xe f:/microchip/xc32/v4.35/bin/bin/../../lib/gcc/pic32mx/8.3.1/../../../../pic32mx/lib/fpu64\libpic32.a(pic32_data_init_clear.o)
 .xc_stack_usage
                0x0000000000000000       0x1b f:/microchip/xc32/v4.35/bin/bin/../../lib/gcc/pic32mx/8.3.1/../../../../pic32mx/lib/fpu64\libpic32.a(pic32_data_init_clear.o)
 .data          0x0000000000000000        0x0 f:/microchip/xc32/v4.35/bin/bin/../../lib/gcc/pic32mx/8.3.1/../../../../pic32mx/lib/fpu64\libpic32.a(pic32_data_init_copy.o)
 .bss           0x0000000000000000        0x0 f:/microchip/xc32/v4.35/bin/bin/../../lib/gcc/pic32mx/8.3.1/../../../../pic32mx/lib/fpu64\libpic32.a(pic32_data_init_copy.o)
 .reginfo       0x0000000000000000       0x18 f:/microchip/xc32/v4.35/bin/bin/../../lib/gcc/pic32mx/8.3.1/../../../../pic32mx/lib/fpu64\libpic32.a(pic32_data_init_copy.o)
 .MIPS.abiflags
                0x0000000000000000       0x18 f:/microchip/xc32/v4.35/bin/bin/../../lib/gcc/pic32mx/8.3.1/../../../../pic32mx/lib/fpu64\libpic32.a(pic32_data_init_copy.o)
 .xc_stack_usage.hdr
                0x0000000000000000        0xe f:/microchip/xc32/v4.35/bin/bin/../../lib/gcc/pic32mx/8.3.1/../../../../pic32mx/lib/fpu64\libpic32.a(pic32_data_init_copy.o)
 .xc_stack_usage
                0x0000000000000000       0x1a f:/microchip/xc32/v4.35/bin/bin/../../lib/gcc/pic32mx/8.3.1/../../../../pic32mx/lib/fpu64\libpic32.a(pic32_data_init_copy.o)

Memory Configuration

Name             Origin             Length             Attributes
kseg0_program_mem 0x000000009d000000 0x0000000000080000 xr
kseg0_boot_mem   0x000000009fc004b0 0x0000000000000000
kseg1_boot_mem   0x00000000bfc00000 0x0000000000000480
kseg1_boot_mem_4B0 0x00000000bfc004b0 0x000000000000fa50
config_BFC0FF40  0x00000000bfc0ff40 0x0000000000000004
config_BFC0FF44  0x00000000bfc0ff44 0x0000000000000004
config_BFC0FF48  0x00000000bfc0ff48 0x0000000000000004
config_BFC0FF4C  0x00000000bfc0ff4c 0x0000000000000004
config_BFC0FF50  0x00000000bfc0ff50 0x0000000000000004
config_BFC0FF54  0x00000000bfc0ff54 0x0000000000000004
config_BFC0FF58  0x00000000bfc0ff58 0x0000000000000004
config_BFC0FF5C  0x00000000bfc0ff5c 0x0000000000000004
config_BFC0FF60  0x00000000bfc0ff60 0x0000000000000004
config_BFC0FF64  0x00000000bfc0ff64 0x0000000000000004
config_BFC0FF68  0x00000000bfc0ff68 0x0000000000000004
config_BFC0FF6C  0x00000000bfc0ff6c 0x0000000000000004
config_BFC0FF70  0x00000000bfc0ff70 0x0000000000000004
config_BFC0FF74  0x00000000bfc0ff74 0x0000000000000004
config_BFC0FF78  0x00000000bfc0ff78 0x0000000000000004
config_BFC0FF7C  0x00000000bfc0ff7c 0x0000000000000004
config_BFC0FFC0  0x00000000bfc0ffc0 0x0000000000000004
config_BFC0FFC4  0x00000000bfc0ffc4 0x0000000000000004
config_BFC0FFC8  0x00000000bfc0ffc8 0x0000000000000004
config_BFC0FFCC  0x00000000bfc0ffcc 0x0000000000000004
config_BFC0FFD0  0x00000000bfc0ffd0 0x0000000000000004
config_BFC0FFD4  0x00000000bfc0ffd4 0x0000000000000004
config_BFC0FFD8  0x00000000bfc0ffd8 0x0000000000000004
config_BFC0FFDC  0x00000000bfc0ffdc 0x0000000000000004
config_BFC0FFE0  0x00000000bfc0ffe0 0x0000000000000004
config_BFC0FFE4  0x00000000bfc0ffe4 0x0000000000000004
config_BFC0FFE8  0x00000000bfc0ffe8 0x0000000000000004
config_BFC0FFEC  0x00000000bfc0ffec 0x0000000000000004
config_BFC0FFF0  0x00000000bfc0fff0 0x0000000000000004
config_BFC0FFF4  0x00000000bfc0fff4 0x0000000000000004
config_BFC0FFF8  0x00000000bfc0fff8 0x0000000000000004
config_BFC0FFFC  0x00000000bfc0fffc 0x0000000000000004
lowerbootaliaslastpage 0x00000000bfc10000 0x0000000000004000
upperbootalias   0x00000000bfc20000 0x000000000000ff00
config_BFC2FF40  0x00000000bfc2ff40 0x0000000000000004
config_BFC2FF44  0x00000000bfc2ff44 0x0000000000000004
config_BFC2FF48  0x00000000bfc2ff48 0x0000000000000004
config_BFC2FF4C  0x00000000bfc2ff4c 0x0000000000000004
config_BFC2FF50  0x00000000bfc2ff50 0x0000000000000004
config_BFC2FF54  0x00000000bfc2ff54 0x0000000000000004
config_BFC2FF58  0x00000000bfc2ff58 0x0000000000000004
config_BFC2FF5C  0x00000000bfc2ff5c 0x0000000000000004
config_BFC2FF60  0x00000000bfc2ff60 0x0000000000000004
config_BFC2FF64  0x00000000bfc2ff64 0x0000000000000004
config_BFC2FF68  0x00000000bfc2ff68 0x0000000000000004
config_BFC2FF6C  0x00000000bfc2ff6c 0x0000000000000004
config_BFC2FF70  0x00000000bfc2ff70 0x0000000000000004
config_BFC2FF74  0x00000000bfc2ff74 0x0000000000000004
config_BFC2FF78  0x00000000bfc2ff78 0x0000000000000004
config_BFC2FF7C  0x00000000bfc2ff7c 0x0000000000000004
config_BFC2FFC0  0x00000000bfc2ffc0 0x0000000000000004
config_BFC2FFC4  0x00000000bfc2ffc4 0x0000000000000004
config_BFC2FFC8  0x00000000bfc2ffc8 0x0000000000000004
config_BFC2FFCC  0x00000000bfc2ffcc 0x0000000000000004
config_BFC2FFD0  0x00000000bfc2ffd0 0x0000000000000004
config_BFC2FFD4  0x00000000bfc2ffd4 0x0000000000000004
config_BFC2FFD8  0x00000000bfc2ffd8 0x0000000000000004
config_BFC2FFDC  0x00000000bfc2ffdc 0x0000000000000004
config_BFC2FFE0  0x00000000bfc2ffe0 0x0000000000000004
config_BFC2FFE4  0x00000000bfc2ffe4 0x0000000000000004
config_BFC2FFE8  0x00000000bfc2ffe8 0x0000000000000004
config_BFC2FFEC  0x00000000bfc2ffec 0x0000000000000004
config_BFC2FFF0  0x00000000bfc2fff0 0x0000000000000004
config_BFC2FFF4  0x00000000bfc2fff4 0x0000000000000004
config_BFC2FFF8  0x00000000bfc2fff8 0x0000000000000004
config_BFC2FFFC  0x00000000bfc2fffc 0x0000000000000004
upperbootaliaslastpage 0x00000000bfc30000 0x0000000000004000
boot1            0x00000000bfc40000 0x000000000000ff00
config_BFC4FF40  0x00000000bfc4ff40 0x0000000000000004
config_BFC4FF44  0x00000000bfc4ff44 0x0000000000000004
config_BFC4FF48  0x00000000bfc4ff48 0x0000000000000004
config_BFC4FF4C  0x00000000bfc4ff4c 0x0000000000000004
config_BFC4FF50  0x00000000bfc4ff50 0x0000000000000004
config_BFC4FF54  0x00000000bfc4ff54 0x0000000000000004
config_BFC4FF58  0x00000000bfc4ff58 0x0000000000000004
config_BFC4FF5C  0x00000000bfc4ff5c 0x0000000000000004
config_BFC4FF60  0x00000000bfc4ff60 0x0000000000000004
config_BFC4FF64  0x00000000bfc4ff64 0x0000000000000004
config_BFC4FF68  0x00000000bfc4ff68 0x0000000000000004
config_BFC4FF6C  0x00000000bfc4ff6c 0x0000000000000004
config_BFC4FF70  0x00000000bfc4ff70 0x0000000000000004
config_BFC4FF74  0x00000000bfc4ff74 0x0000000000000004
config_BFC4FF78  0x00000000bfc4ff78 0x0000000000000004
config_BFC4FF7C  0x00000000bfc4ff7c 0x0000000000000004
config_BFC4FFC0  0x00000000bfc4ffc0 0x0000000000000004
config_BFC4FFC4  0x00000000bfc4ffc4 0x0000000000000004
config_BFC4FFC8  0x00000000bfc4ffc8 0x0000000000000004
config_BFC4FFCC  0x00000000bfc4ffcc 0x0000000000000004
config_BFC4FFD0  0x00000000bfc4ffd0 0x0000000000000004
config_BFC4FFD4  0x00000000bfc4ffd4 0x0000000000000004
config_BFC4FFD8  0x00000000bfc4ffd8 0x0000000000000004
config_BFC4FFDC  0x00000000bfc4ffdc 0x0000000000000004
config_BFC4FFE0  0x00000000bfc4ffe0 0x0000000000000004
config_BFC4FFE4  0x00000000bfc4ffe4 0x0000000000000004
config_BFC4FFE8  0x00000000bfc4ffe8 0x0000000000000004
config_BFC4FFEC  0x00000000bfc4ffec 0x0000000000000004
config_BFC4FFF0  0x00000000bfc4fff0 0x0000000000000004
config_BFC4FFF4  0x00000000bfc4fff4 0x0000000000000004
config_BFC4FFF8  0x00000000bfc4fff8 0x0000000000000004
config_BFC4FFFC  0x00000000bfc4fffc 0x0000000000000004
boot1lastpage    0x00000000bfc50000 0x0000000000004000
config_BFC54000  0x00000000bfc54000 0x0000000000000004
config_BFC54004  0x00000000bfc54004 0x0000000000000004
config_BFC54008  0x00000000bfc54008 0x0000000000000004
config_BFC5400C  0x00000000bfc5400c 0x0000000000000004
config_BFC54010  0x00000000bfc54010 0x0000000000000004
config_BFC5401C  0x00000000bfc5401c 0x0000000000000004
config_BFC54020  0x00000000bfc54020 0x0000000000000004
config_BFC54024  0x00000000bfc54024 0x0000000000000004
boot2            0x00000000bfc60000 0x000000000000ff00
config_BFC6FF40  0x00000000bfc6ff40 0x0000000000000004
config_BFC6FF44  0x00000000bfc6ff44 0x0000000000000004
config_BFC6FF48  0x00000000bfc6ff48 0x0000000000000004
config_BFC6FF4C  0x00000000bfc6ff4c 0x0000000000000004
config_BFC6FF50  0x00000000bfc6ff50 0x0000000000000004
config_BFC6FF54  0x00000000bfc6ff54 0x0000000000000004
config_BFC6FF58  0x00000000bfc6ff58 0x0000000000000004
config_BFC6FF5C  0x00000000bfc6ff5c 0x0000000000000004
config_BFC6FF60  0x00000000bfc6ff60 0x0000000000000004
config_BFC6FF64  0x00000000bfc6ff64 0x0000000000000004
config_BFC6FF68  0x00000000bfc6ff68 0x0000000000000004
config_BFC6FF6C  0x00000000bfc6ff6c 0x0000000000000004
config_BFC6FF70  0x00000000bfc6ff70 0x0000000000000004
config_BFC6FF74  0x00000000bfc6ff74 0x0000000000000004
config_BFC6FF78  0x00000000bfc6ff78 0x0000000000000004
config_BFC6FF7C  0x00000000bfc6ff7c 0x0000000000000004
config_BFC6FFC0  0x00000000bfc6ffc0 0x0000000000000004
config_BFC6FFC4  0x00000000bfc6ffc4 0x0000000000000004
config_BFC6FFC8  0x00000000bfc6ffc8 0x0000000000000004
config_BFC6FFCC  0x00000000bfc6ffcc 0x0000000000000004
config_BFC6FFD0  0x00000000bfc6ffd0 0x0000000000000004
config_BFC6FFD4  0x00000000bfc6ffd4 0x0000000000000004
config_BFC6FFD8  0x00000000bfc6ffd8 0x0000000000000004
config_BFC6FFDC  0x00000000bfc6ffdc 0x0000000000000004
config_BFC6FFE0  0x00000000bfc6ffe0 0x0000000000000004
config_BFC6FFE4  0x00000000bfc6ffe4 0x0000000000000004
config_BFC6FFE8  0x00000000bfc6ffe8 0x0000000000000004
config_BFC6FFEC  0x00000000bfc6ffec 0x0000000000000004
config_BFC6FFF0  0x00000000bfc6fff0 0x0000000000000004
config_BFC6FFF4  0x00000000bfc6fff4 0x0000000000000004
config_BFC6FFF8  0x00000000bfc6fff8 0x0000000000000004
config_BFC6FFFC  0x00000000bfc6fffc 0x0000000000000004
boot2lastpage    0x00000000bfc70000 0x0000000000004000
kseg0_data_mem   0x0000000080000000 0x0000000000020000 w !x
sfrs             0x00000000bf800000 0x0000000000100000
configsfrs_BFC0FF40 0x00000000bfc0ff40 0x0000000000000040
configsfrs_BFC0FFC0 0x00000000bfc0ffc0 0x0000000000000040
configsfrs_BFC2FF40 0x00000000bfc2ff40 0x0000000000000040
configsfrs_BFC2FFC0 0x00000000bfc2ffc0 0x0000000000000040
configsfrs_BFC4FF40 0x00000000bfc4ff40 0x0000000000000040
configsfrs_BFC4FFC0 0x00000000bfc4ffc0 0x0000000000000040
configsfrs_BFC54000 0x00000000bfc54000 0x0000000000000020
configsfrs_BFC6FF40 0x00000000bfc6ff40 0x0000000000000040
configsfrs_BFC6FFC0 0x00000000bfc6ffc0 0x0000000000000040
kseg2_sqi_data_mem 0x00000000d0000000 0x0000000004000000
kseg3_sqi_data_mem 0x00000000f0000000 0x0000000004000000
*default*        0x0000000000000000 0xffffffffffffffff

Linker script and memory map

LOAD f:/microchip/xc32/v4.35/bin/bin/../../lib/gcc/pic32mx/8.3.1/../../../../pic32mx/lib/fpu64\debug-exception-return.o
LOAD build/default/production/_ext/513455433/plib_i2c1_master.o
LOAD build/default/production/_ext/1171490990/initialization.o
LOAD build/default/production/_ext/163028504/xc32_monitor.o
LOAD build/default/production/_ext/1865200349/plib_evic.o
LOAD build/default/production/_ext/1360937237/main.o
LOAD build/default/production/_ext/1171490990/interrupts.o
LOAD build/default/production/_ext/1865254177/plib_gpio.o
LOAD build/default/production/_ext/60165520/plib_clk.o
LOAD build/default/production/_ext/1865657120/plib_uart2.o
LOAD build/default/production/_ext/1171490990/exceptions.o
LOAD build/default/production/_ext/1865161661/plib_dmac.o
LOAD build/default/production/_ext/1249264884/plib_coretimer.o
LOAD build/default/production/_ext/60181895/plib_tmr2.o
LOAD build/default/production/_ext/1360937237/bme280_driver.o
                0x0000000000000001                __MPLAB_BUILD = 0x1
                0x0000000000000400                PROVIDE (_min_stack_size = 0x400)
START GROUP
LOAD vector_offset_init.o
END GROUP
                0x0000000000000001                PROVIDE (_vector_spacing = 0x1)
                0x000000009d000000                PROVIDE (_ebase_address = 0x9d000000)
                0x00000000bfc00000                _RESET_ADDR = 0xbfc00000
                0x00000000bfc00380                _BEV_EXCPT_ADDR = 0xbfc00380
                0x00000000bfc00480                _DBG_EXCPT_ADDR = 0xbfc00480
                0x000000009d000000                _SIMPLE_TLB_REFILL_EXCPT_ADDR = (_ebase_address + 0x0)
                0x000000009d000100                _CACHE_ERR_EXCPT_ADDR = (_ebase_address + 0x100)
                0x000000009d000180                _GEN_EXCPT_ADDR = (_ebase_address + 0x180)

.config_BFC0FF40
 *(.config_BFC0FF40)

.config_BFC0FF44
 *(.config_BFC0FF44)

.config_BFC0FF48
 *(.config_BFC0FF48)

.config_BFC0FF4C
 *(.config_BFC0FF4C)

.config_BFC0FF50
 *(.config_BFC0FF50)

.config_BFC0FF54
 *(.config_BFC0FF54)

.config_BFC0FF58
 *(.config_BFC0FF58)

.config_BFC0FF5C
 *(.config_BFC0FF5C)

.config_BFC0FF60
 *(.config_BFC0FF60)

.config_BFC0FF64
 *(.config_BFC0FF64)

.config_BFC0FF68
 *(.config_BFC0FF68)

.config_BFC0FF6C
 *(.config_BFC0FF6C)

.config_BFC0FF70
 *(.config_BFC0FF70)

.config_BFC0FF74
 *(.config_BFC0FF74)

.config_BFC0FF78
 *(.config_BFC0FF78)

.config_BFC0FF7C
 *(.config_BFC0FF7C)

.config_BFC0FFC0
 *(.config_BFC0FFC0)

.config_BFC0FFC4
 *(.config_BFC0FFC4)

.config_BFC0FFC8
 *(.config_BFC0FFC8)

.config_BFC0FFCC
 *(.config_BFC0FFCC)

.config_BFC0FFD0
 *(.config_BFC0FFD0)

.config_BFC0FFD4
 *(.config_BFC0FFD4)

.config_BFC0FFD8
 *(.config_BFC0FFD8)

.config_BFC0FFDC
 *(.config_BFC0FFDC)

.config_BFC0FFE0
 *(.config_BFC0FFE0)

.config_BFC0FFE4
 *(.config_BFC0FFE4)

.config_BFC0FFE8
 *(.config_BFC0FFE8)

.config_BFC0FFEC
 *(.config_BFC0FFEC)

.config_BFC0FFF0
 *(.config_BFC0FFF0)

.config_BFC0FFF4
 *(.config_BFC0FFF4)

.config_BFC0FFF8
 *(.config_BFC0FFF8)

.config_BFC0FFFC
 *(.config_BFC0FFFC)

.config_BFC2FF40
 *(.config_BFC2FF40)

.config_BFC2FF44
 *(.config_BFC2FF44)

.config_BFC2FF48
 *(.config_BFC2FF48)

.config_BFC2FF4C
 *(.config_BFC2FF4C)

.config_BFC2FF50
 *(.config_BFC2FF50)

.config_BFC2FF54
 *(.config_BFC2FF54)

.config_BFC2FF58
 *(.config_BFC2FF58)

.config_BFC2FF5C
 *(.config_BFC2FF5C)

.config_BFC2FF60
 *(.config_BFC2FF60)

.config_BFC2FF64
 *(.config_BFC2FF64)

.config_BFC2FF68
 *(.config_BFC2FF68)

.config_BFC2FF6C
 *(.config_BFC2FF6C)

.config_BFC2FF70
 *(.config_BFC2FF70)

.config_BFC2FF74
 *(.config_BFC2FF74)

.config_BFC2FF78
 *(.config_BFC2FF78)

.config_BFC2FF7C
 *(.config_BFC2FF7C)

.config_BFC2FFC0
 *(.config_BFC2FFC0)

.config_BFC2FFC4
 *(.config_BFC2FFC4)

.config_BFC2FFC8
 *(.config_BFC2FFC8)

.config_BFC2FFCC
 *(.config_BFC2FFCC)

.config_BFC2FFD0
 *(.config_BFC2FFD0)

.config_BFC2FFD4
 *(.config_BFC2FFD4)

.config_BFC2FFD8
 *(.config_BFC2FFD8)

.config_BFC2FFDC
 *(.config_BFC2FFDC)

.config_BFC2FFE0
 *(.config_BFC2FFE0)

.config_BFC2FFE4
 *(.config_BFC2FFE4)

.config_BFC2FFE8
 *(.config_BFC2FFE8)

.config_BFC2FFEC
 *(.config_BFC2FFEC)

.config_BFC2FFF0
 *(.config_BFC2FFF0)

.config_BFC2FFF4
 *(.config_BFC2FFF4)

.config_BFC2FFF8
 *(.config_BFC2FFF8)

.config_BFC2FFFC
 *(.config_BFC2FFFC)

.config_BFC4FF40
 *(.config_BFC4FF40)

.config_BFC4FF44
 *(.config_BFC4FF44)

.config_BFC4FF48
 *(.config_BFC4FF48)

.config_BFC4FF4C
 *(.config_BFC4FF4C)

.config_BFC4FF50
 *(.config_BFC4FF50)

.config_BFC4FF54
 *(.config_BFC4FF54)

.config_BFC4FF58
 *(.config_BFC4FF58)

.config_BFC4FF5C
 *(.config_BFC4FF5C)

.config_BFC4FF60
 *(.config_BFC4FF60)

.config_BFC4FF64
 *(.config_BFC4FF64)

.config_BFC4FF68
 *(.config_BFC4FF68)

.config_BFC4FF6C
 *(.config_BFC4FF6C)

.config_BFC4FF70
 *(.config_BFC4FF70)

.config_BFC4FF74
 *(.config_BFC4FF74)

.config_BFC4FF78
 *(.config_BFC4FF78)

.config_BFC4FF7C
 *(.config_BFC4FF7C)

.config_BFC4FFC0
 *(.config_BFC4FFC0)

.config_BFC4FFC4
 *(.config_BFC4FFC4)

.config_BFC4FFC8
 *(.config_BFC4FFC8)

.config_BFC4FFCC
 *(.config_BFC4FFCC)

.config_BFC4FFD0
 *(.config_BFC4FFD0)

.config_BFC4FFD4
 *(.config_BFC4FFD4)

.config_BFC4FFD8
 *(.config_BFC4FFD8)

.config_BFC4FFDC
 *(.config_BFC4FFDC)

.config_BFC4FFE0
 *(.config_BFC4FFE0)

.config_BFC4FFE4
 *(.config_BFC4FFE4)

.config_BFC4FFE8
 *(.config_BFC4FFE8)

.config_BFC4FFEC
 *(.config_BFC4FFEC)

.config_BFC4FFF0
 *(.config_BFC4FFF0)

.config_BFC4FFF4
 *(.config_BFC4FFF4)

.config_BFC4FFF8
 *(.config_BFC4FFF8)

.config_BFC4FFFC
 *(.config_BFC4FFFC)

.config_BFC54000
 *(.config_BFC54000)

.config_BFC54004
 *(.config_BFC54004)

.config_BFC54008
 *(.config_BFC54008)

.config_BFC5400C
 *(.config_BFC5400C)

.config_BFC54010
 *(.config_BFC54010)

.config_BFC5401C
 *(.config_BFC5401C)

.config_BFC54020
 *(.config_BFC54020)

.config_BFC54024
 *(.config_BFC54024)

.config_BFC6FF40
 *(.config_BFC6FF40)

.config_BFC6FF44
 *(.config_BFC6FF44)

.config_BFC6FF48
 *(.config_BFC6FF48)

.config_BFC6FF4C
 *(.config_BFC6FF4C)

.config_BFC6FF50
 *(.config_BFC6FF50)

.config_BFC6FF54
 *(.config_BFC6FF54)

.config_BFC6FF58
 *(.config_BFC6FF58)

.config_BFC6FF5C
 *(.config_BFC6FF5C)

.config_BFC6FF60
 *(.config_BFC6FF60)

.config_BFC6FF64
 *(.config_BFC6FF64)

.config_BFC6FF68
 *(.config_BFC6FF68)

.config_BFC6FF6C
 *(.config_BFC6FF6C)

.config_BFC6FF70
 *(.config_BFC6FF70)

.config_BFC6FF74
 *(.config_BFC6FF74)

.config_BFC6FF78
 *(.config_BFC6FF78)

.config_BFC6FF7C
 *(.config_BFC6FF7C)

.config_BFC6FFC0
 *(.config_BFC6FFC0)

.config_BFC6FFC4
 *(.config_BFC6FFC4)

.config_BFC6FFC8
 *(.config_BFC6FFC8)

.config_BFC6FFCC
 *(.config_BFC6FFCC)

.config_BFC6FFD0
 *(.config_BFC6FFD0)

.config_BFC6FFD4
 *(.config_BFC6FFD4)

.config_BFC6FFD8
 *(.config_BFC6FFD8)

.config_BFC6FFDC
 *(.config_BFC6FFDC)

.config_BFC6FFE0
 *(.config_BFC6FFE0)

.config_BFC6FFE4
 *(.config_BFC6FFE4)

.config_BFC6FFE8
 *(.config_BFC6FFE8)

.config_BFC6FFEC
 *(.config_BFC6FFEC)

.config_BFC6FFF0
 *(.config_BFC6FFF0)

.config_BFC6FFF4
 *(.config_BFC6FFF4)

.config_BFC6FFF8
 *(.config_BFC6FFF8)

.config_BFC6FFFC
 *(.config_BFC6FFFC)

.reset          0x00000000bfc00000      0x1c4
 *(.reset)
 .reset         0x00000000bfc00000       0x18 C:\Users\huope\AppData\Local\Temp\cce2fMSS.o
                0x00000000bfc00000                _reset
 *(.reset.startup)
 .reset.startup
                0x00000000bfc00018      0x1ac C:\Users\huope\AppData\Local\Temp\cce2fMSS.o
                0x00000000bfc00018                _startup

.bev_excpt      0x00000000bfc00380       0x10
 *(.bev_handler)
 .bev_handler   0x00000000bfc00380       0x10 C:\Users\huope\AppData\Local\Temp\cce2fMSS.o

.cache_init     0x00000000bfc004b0      0x1c0
 *(.cache_init)
 *(.cache_init.*)
 .cache_init.cache
                0x00000000bfc004b0       0xc0 f:/microchip/xc32/v4.35/bin/bin/../../lib/gcc/pic32mx/8.3.1/../../../../pic32mx/lib/fpu64\libpic32.a(pic32_init_cache.o)
 .cache_init.pic32_init_cache
                0x00000000bfc00570      0x100 f:/microchip/xc32/v4.35/bin/bin/../../lib/gcc/pic32mx/8.3.1/../../../../pic32mx/lib/fpu64\libpic32.a(pic32_init_cache.o)
                0x00000000bfc00570                __pic32_init_cache

.simple_tlb_refill_excpt
                0x000000009d000000       0x10
 *(.simple_tlb_refill_vector)
 .simple_tlb_refill_vector
                0x000000009d000000       0x10 C:\Users\huope\AppData\Local\Temp\cce2fMSS.o

.cache_err_excpt
                0x000000009d000100       0x10
 *(.cache_err_vector)
 .cache_err_vector
                0x000000009d000100       0x10 C:\Users\huope\AppData\Local\Temp\cce2fMSS.o

.app_excpt      0x000000009d000180       0x10
 *(.gen_handler)
 .gen_handler   0x000000009d000180       0x10 C:\Users\huope\AppData\Local\Temp\cce2fMSS.o

.vectors        0x000000009d000200       0x88
                0x000000009d000200                . = ALIGN (0x4)
                0x0000000000000240                __vector_offset_0 = DEFINED (__vector_dispatch_0)?(. - _ebase_address):__vector_offset_default
 *(.vector_0)
                0x000000009d000200                . = ALIGN (0x4)
                0x0000000000000240                __vector_offset_1 = DEFINED (__vector_dispatch_1)?(. - _ebase_address):__vector_offset_default
 *(.vector_1)
                0x000000009d000200                . = ALIGN (0x4)
                0x0000000000000240                __vector_offset_2 = DEFINED (__vector_dispatch_2)?(. - _ebase_address):__vector_offset_default
 *(.vector_2)
                0x000000009d000200                . = ALIGN (0x4)
                0x0000000000000240                __vector_offset_3 = DEFINED (__vector_dispatch_3)?(. - _ebase_address):__vector_offset_default
 *(.vector_3)
                0x000000009d000200                . = ALIGN (0x4)
                0x0000000000000240                __vector_offset_4 = DEFINED (__vector_dispatch_4)?(. - _ebase_address):__vector_offset_default
 *(.vector_4)
                0x000000009d000200                . = ALIGN (0x4)
                0x0000000000000240                __vector_offset_5 = DEFINED (__vector_dispatch_5)?(. - _ebase_address):__vector_offset_default
 *(.vector_5)
                0x000000009d000200                . = ALIGN (0x4)
                0x0000000000000240                __vector_offset_6 = DEFINED (__vector_dispatch_6)?(. - _ebase_address):__vector_offset_default
 *(.vector_6)
                0x000000009d000200                . = ALIGN (0x4)
                0x0000000000000240                __vector_offset_7 = DEFINED (__vector_dispatch_7)?(. - _ebase_address):__vector_offset_default
 *(.vector_7)
                0x000000009d000200                . = ALIGN (0x4)
                0x0000000000000240                __vector_offset_8 = DEFINED (__vector_dispatch_8)?(. - _ebase_address):__vector_offset_default
 *(.vector_8)
                0x000000009d000200                . = ALIGN (0x4)
                0x0000000000000200                __vector_offset_9 = DEFINED (__vector_dispatch_9)?(. - _ebase_address):__vector_offset_default
 *(.vector_9)
 .vector_9      0x000000009d000200        0x8 build/default/production/_ext/1171490990/interrupts.o
                0x000000009d000200                __vector_dispatch_9
                0x000000009d000208                . = ALIGN (0x4)
                0x0000000000000240                __vector_offset_10 = DEFINED (__vector_dispatch_10)?(. - _ebase_address):__vector_offset_default
 *(.vector_10)
                0x000000009d000208                . = ALIGN (0x4)
                0x0000000000000240                __vector_offset_11 = DEFINED (__vector_dispatch_11)?(. - _ebase_address):__vector_offset_default
 *(.vector_11)
                0x000000009d000208                . = ALIGN (0x4)
                0x0000000000000240                __vector_offset_12 = DEFINED (__vector_dispatch_12)?(. - _ebase_address):__vector_offset_default
 *(.vector_12)
                0x000000009d000208                . = ALIGN (0x4)
                0x0000000000000240                __vector_offset_13 = DEFINED (__vector_dispatch_13)?(. - _ebase_address):__vector_offset_default
 *(.vector_13)
                0x000000009d000208                . = ALIGN (0x4)
                0x0000000000000240                __vector_offset_14 = DEFINED (__vector_dispatch_14)?(. - _ebase_address):__vector_offset_default
 *(.vector_14)
                0x000000009d000208                . = ALIGN (0x4)
                0x0000000000000240                __vector_offset_15 = DEFINED (__vector_dispatch_15)?(. - _ebase_address):__vector_offset_default
 *(.vector_15)
                0x000000009d000208                . = ALIGN (0x4)
                0x0000000000000240                __vector_offset_16 = DEFINED (__vector_dispatch_16)?(. - _ebase_address):__vector_offset_default
 *(.vector_16)
                0x000000009d000208                . = ALIGN (0x4)
                0x0000000000000240                __vector_offset_17 = DEFINED (__vector_dispatch_17)?(. - _ebase_address):__vector_offset_default
 *(.vector_17)
                0x000000009d000208                . = ALIGN (0x4)
                0x0000000000000240                __vector_offset_18 = DEFINED (__vector_dispatch_18)?(. - _ebase_address):__vector_offset_default
 *(.vector_18)
                0x000000009d000208                . = ALIGN (0x4)
                0x0000000000000240                __vector_offset_19 = DEFINED (__vector_dispatch_19)?(. - _ebase_address):__vector_offset_default
 *(.vector_19)
                0x000000009d000208                . = ALIGN (0x4)
                0x0000000000000240                __vector_offset_20 = DEFINED (__vector_dispatch_20)?(. - _ebase_address):__vector_offset_default
 *(.vector_20)
                0x000000009d000208                . = ALIGN (0x4)
                0x0000000000000240                __vector_offset_21 = DEFINED (__vector_dispatch_21)?(. - _ebase_address):__vector_offset_default
 *(.vector_21)
                0x000000009d000208                . = ALIGN (0x4)
                0x0000000000000240                __vector_offset_22 = DEFINED (__vector_dispatch_22)?(. - _ebase_address):__vector_offset_default
 *(.vector_22)
                0x000000009d000208                . = ALIGN (0x4)
                0x0000000000000240                __vector_offset_23 = DEFINED (__vector_dispatch_23)?(. - _ebase_address):__vector_offset_default
 *(.vector_23)
                0x000000009d000208                . = ALIGN (0x4)
                0x0000000000000240                __vector_offset_24 = DEFINED (__vector_dispatch_24)?(. - _ebase_address):__vector_offset_default
 *(.vector_24)
                0x000000009d000208                . = ALIGN (0x4)
                0x0000000000000240                __vector_offset_25 = DEFINED (__vector_dispatch_25)?(. - _ebase_address):__vector_offset_default
 *(.vector_25)
                0x000000009d000208                . = ALIGN (0x4)
                0x0000000000000240                __vector_offset_26 = DEFINED (__vector_dispatch_26)?(. - _ebase_address):__vector_offset_default
 *(.vector_26)
                0x000000009d000208                . = ALIGN (0x4)
                0x0000000000000240                __vector_offset_27 = DEFINED (__vector_dispatch_27)?(. - _ebase_address):__vector_offset_default
 *(.vector_27)
                0x000000009d000208                . = ALIGN (0x4)
                0x0000000000000240                __vector_offset_28 = DEFINED (__vector_dispatch_28)?(. - _ebase_address):__vector_offset_default
 *(.vector_28)
                0x000000009d000208                . = ALIGN (0x4)
                0x0000000000000240                __vector_offset_29 = DEFINED (__vector_dispatch_29)?(. - _ebase_address):__vector_offset_default
 *(.vector_29)
                0x000000009d000208                . = ALIGN (0x4)
                0x0000000000000240                __vector_offset_30 = DEFINED (__vector_dispatch_30)?(. - _ebase_address):__vector_offset_default
 *(.vector_30)
                0x000000009d000208                . = ALIGN (0x4)
                0x0000000000000240                __vector_offset_31 = DEFINED (__vector_dispatch_31)?(. - _ebase_address):__vector_offset_default
 *(.vector_31)
                0x000000009d000208                . = ALIGN (0x4)
                0x0000000000000240                __vector_offset_32 = DEFINED (__vector_dispatch_32)?(. - _ebase_address):__vector_offset_default
 *(.vector_32)
                0x000000009d000208                . = ALIGN (0x4)
                0x0000000000000240                __vector_offset_33 = DEFINED (__vector_dispatch_33)?(. - _ebase_address):__vector_offset_default
 *(.vector_33)
                0x000000009d000208                . = ALIGN (0x4)
                0x0000000000000240                __vector_offset_34 = DEFINED (__vector_dispatch_34)?(. - _ebase_address):__vector_offset_default
 *(.vector_34)
                0x000000009d000208                . = ALIGN (0x4)
                0x0000000000000240                __vector_offset_35 = DEFINED (__vector_dispatch_35)?(. - _ebase_address):__vector_offset_default
 *(.vector_35)
                0x000000009d000208                . = ALIGN (0x4)
                0x0000000000000240                __vector_offset_36 = DEFINED (__vector_dispatch_36)?(. - _ebase_address):__vector_offset_default
 *(.vector_36)
                0x000000009d000208                . = ALIGN (0x4)
                0x0000000000000240                __vector_offset_37 = DEFINED (__vector_dispatch_37)?(. - _ebase_address):__vector_offset_default
 *(.vector_37)
                0x000000009d000208                . = ALIGN (0x4)
                0x0000000000000240                __vector_offset_38 = DEFINED (__vector_dispatch_38)?(. - _ebase_address):__vector_offset_default
 *(.vector_38)
                0x000000009d000208                . = ALIGN (0x4)
                0x0000000000000240                __vector_offset_39 = DEFINED (__vector_dispatch_39)?(. - _ebase_address):__vector_offset_default
 *(.vector_39)
                0x000000009d000208                . = ALIGN (0x4)
                0x0000000000000240                __vector_offset_40 = DEFINED (__vector_dispatch_40)?(. - _ebase_address):__vector_offset_default
 *(.vector_40)
                0x000000009d000208                . = ALIGN (0x4)
                0x0000000000000240                __vector_offset_41 = DEFINED (__vector_dispatch_41)?(. - _ebase_address):__vector_offset_default
 *(.vector_41)
                0x000000009d000208                . = ALIGN (0x4)
                0x0000000000000240                __vector_offset_42 = DEFINED (__vector_dispatch_42)?(. - _ebase_address):__vector_offset_default
 *(.vector_42)
                0x000000009d000208                . = ALIGN (0x4)
                0x0000000000000240                __vector_offset_43 = DEFINED (__vector_dispatch_43)?(. - _ebase_address):__vector_offset_default
 *(.vector_43)
                0x000000009d000208                . = ALIGN (0x4)
                0x0000000000000240                __vector_offset_44 = DEFINED (__vector_dispatch_44)?(. - _ebase_address):__vector_offset_default
 *(.vector_44)
                0x000000009d000208                . = ALIGN (0x4)
                0x0000000000000240                __vector_offset_45 = DEFINED (__vector_dispatch_45)?(. - _ebase_address):__vector_offset_default
 *(.vector_45)
                0x000000009d000208                . = ALIGN (0x4)
                0x0000000000000240                __vector_offset_46 = DEFINED (__vector_dispatch_46)?(. - _ebase_address):__vector_offset_default
 *(.vector_46)
                0x000000009d000208                . = ALIGN (0x4)
                0x0000000000000240                __vector_offset_47 = DEFINED (__vector_dispatch_47)?(. - _ebase_address):__vector_offset_default
 *(.vector_47)
                0x000000009d000208                . = ALIGN (0x4)
                0x0000000000000240                __vector_offset_48 = DEFINED (__vector_dispatch_48)?(. - _ebase_address):__vector_offset_default
 *(.vector_48)
                0x000000009d000208                . = ALIGN (0x4)
                0x0000000000000240                __vector_offset_49 = DEFINED (__vector_dispatch_49)?(. - _ebase_address):__vector_offset_default
 *(.vector_49)
                0x000000009d000208                . = ALIGN (0x4)
                0x0000000000000240                __vector_offset_50 = DEFINED (__vector_dispatch_50)?(. - _ebase_address):__vector_offset_default
 *(.vector_50)
                0x000000009d000208                . = ALIGN (0x4)
                0x0000000000000240                __vector_offset_51 = DEFINED (__vector_dispatch_51)?(. - _ebase_address):__vector_offset_default
 *(.vector_51)
                0x000000009d000208                . = ALIGN (0x4)
                0x0000000000000240                __vector_offset_52 = DEFINED (__vector_dispatch_52)?(. - _ebase_address):__vector_offset_default
 *(.vector_52)
                0x000000009d000208                . = ALIGN (0x4)
                0x0000000000000240                __vector_offset_53 = DEFINED (__vector_dispatch_53)?(. - _ebase_address):__vector_offset_default
 *(.vector_53)
                0x000000009d000208                . = ALIGN (0x4)
                0x0000000000000240                __vector_offset_54 = DEFINED (__vector_dispatch_54)?(. - _ebase_address):__vector_offset_default
 *(.vector_54)
                0x000000009d000208                . = ALIGN (0x4)
                0x0000000000000240                __vector_offset_55 = DEFINED (__vector_dispatch_55)?(. - _ebase_address):__vector_offset_default
 *(.vector_55)
                0x000000009d000208                . = ALIGN (0x4)
                0x0000000000000240                __vector_offset_56 = DEFINED (__vector_dispatch_56)?(. - _ebase_address):__vector_offset_default
 *(.vector_56)
                0x000000009d000208                . = ALIGN (0x4)
                0x0000000000000240                __vector_offset_57 = DEFINED (__vector_dispatch_57)?(. - _ebase_address):__vector_offset_default
 *(.vector_57)
                0x000000009d000208                . = ALIGN (0x4)
                0x0000000000000240                __vector_offset_58 = DEFINED (__vector_dispatch_58)?(. - _ebase_address):__vector_offset_default
 *(.vector_58)
                0x000000009d000208                . = ALIGN (0x4)
                0x0000000000000240                __vector_offset_59 = DEFINED (__vector_dispatch_59)?(. - _ebase_address):__vector_offset_default
 *(.vector_59)
                0x000000009d000208                . = ALIGN (0x4)
                0x0000000000000240                __vector_offset_60 = DEFINED (__vector_dispatch_60)?(. - _ebase_address):__vector_offset_default
 *(.vector_60)
                0x000000009d000208                . = ALIGN (0x4)
                0x0000000000000240                __vector_offset_61 = DEFINED (__vector_dispatch_61)?(. - _ebase_address):__vector_offset_default
 *(.vector_61)
                0x000000009d000208                . = ALIGN (0x4)
                0x0000000000000240                __vector_offset_62 = DEFINED (__vector_dispatch_62)?(. - _ebase_address):__vector_offset_default
 *(.vector_62)
                0x000000009d000208                . = ALIGN (0x4)
                0x0000000000000240                __vector_offset_63 = DEFINED (__vector_dispatch_63)?(. - _ebase_address):__vector_offset_default
 *(.vector_63)
                0x000000009d000208                . = ALIGN (0x4)
                0x0000000000000240                __vector_offset_64 = DEFINED (__vector_dispatch_64)?(. - _ebase_address):__vector_offset_default
 *(.vector_64)
                0x000000009d000208                . = ALIGN (0x4)
                0x0000000000000240                __vector_offset_65 = DEFINED (__vector_dispatch_65)?(. - _ebase_address):__vector_offset_default
 *(.vector_65)
                0x000000009d000208                . = ALIGN (0x4)
                0x0000000000000240                __vector_offset_66 = DEFINED (__vector_dispatch_66)?(. - _ebase_address):__vector_offset_default
 *(.vector_66)
                0x000000009d000208                . = ALIGN (0x4)
                0x0000000000000240                __vector_offset_67 = DEFINED (__vector_dispatch_67)?(. - _ebase_address):__vector_offset_default
 *(.vector_67)
                0x000000009d000208                . = ALIGN (0x4)
                0x0000000000000240                __vector_offset_68 = DEFINED (__vector_dispatch_68)?(. - _ebase_address):__vector_offset_default
 *(.vector_68)
                0x000000009d000208                . = ALIGN (0x4)
                0x0000000000000240                __vector_offset_69 = DEFINED (__vector_dispatch_69)?(. - _ebase_address):__vector_offset_default
 *(.vector_69)
                0x000000009d000208                . = ALIGN (0x4)
                0x0000000000000240                __vector_offset_70 = DEFINED (__vector_dispatch_70)?(. - _ebase_address):__vector_offset_default
 *(.vector_70)
                0x000000009d000208                . = ALIGN (0x4)
                0x0000000000000240                __vector_offset_71 = DEFINED (__vector_dispatch_71)?(. - _ebase_address):__vector_offset_default
 *(.vector_71)
                0x000000009d000208                . = ALIGN (0x4)
                0x0000000000000240                __vector_offset_72 = DEFINED (__vector_dispatch_72)?(. - _ebase_address):__vector_offset_default
 *(.vector_72)
                0x000000009d000208                . = ALIGN (0x4)
                0x0000000000000240                __vector_offset_73 = DEFINED (__vector_dispatch_73)?(. - _ebase_address):__vector_offset_default
 *(.vector_73)
                0x000000009d000208                . = ALIGN (0x4)
                0x0000000000000240                __vector_offset_74 = DEFINED (__vector_dispatch_74)?(. - _ebase_address):__vector_offset_default
 *(.vector_74)
                0x000000009d000208                . = ALIGN (0x4)
                0x0000000000000240                __vector_offset_75 = DEFINED (__vector_dispatch_75)?(. - _ebase_address):__vector_offset_default
 *(.vector_75)
                0x000000009d000208                . = ALIGN (0x4)
                0x0000000000000240                __vector_offset_76 = DEFINED (__vector_dispatch_76)?(. - _ebase_address):__vector_offset_default
 *(.vector_76)
                0x000000009d000208                . = ALIGN (0x4)
                0x0000000000000240                __vector_offset_77 = DEFINED (__vector_dispatch_77)?(. - _ebase_address):__vector_offset_default
 *(.vector_77)
                0x000000009d000208                . = ALIGN (0x4)
                0x0000000000000240                __vector_offset_78 = DEFINED (__vector_dispatch_78)?(. - _ebase_address):__vector_offset_default
 *(.vector_78)
                0x000000009d000208                . = ALIGN (0x4)
                0x0000000000000240                __vector_offset_79 = DEFINED (__vector_dispatch_79)?(. - _ebase_address):__vector_offset_default
 *(.vector_79)
                0x000000009d000208                . = ALIGN (0x4)
                0x0000000000000240                __vector_offset_80 = DEFINED (__vector_dispatch_80)?(. - _ebase_address):__vector_offset_default
 *(.vector_80)
                0x000000009d000208                . = ALIGN (0x4)
                0x0000000000000240                __vector_offset_81 = DEFINED (__vector_dispatch_81)?(. - _ebase_address):__vector_offset_default
 *(.vector_81)
                0x000000009d000208                . = ALIGN (0x4)
                0x0000000000000240                __vector_offset_82 = DEFINED (__vector_dispatch_82)?(. - _ebase_address):__vector_offset_default
 *(.vector_82)
                0x000000009d000208                . = ALIGN (0x4)
                0x0000000000000240                __vector_offset_83 = DEFINED (__vector_dispatch_83)?(. - _ebase_address):__vector_offset_default
 *(.vector_83)
                0x000000009d000208                . = ALIGN (0x4)
                0x0000000000000240                __vector_offset_84 = DEFINED (__vector_dispatch_84)?(. - _ebase_address):__vector_offset_default
 *(.vector_84)
                0x000000009d000208                . = ALIGN (0x4)
                0x0000000000000240                __vector_offset_85 = DEFINED (__vector_dispatch_85)?(. - _ebase_address):__vector_offset_default
 *(.vector_85)
                0x000000009d000208                . = ALIGN (0x4)
                0x0000000000000240                __vector_offset_86 = DEFINED (__vector_dispatch_86)?(. - _ebase_address):__vector_offset_default
 *(.vector_86)
                0x000000009d000208                . = ALIGN (0x4)
                0x0000000000000240                __vector_offset_87 = DEFINED (__vector_dispatch_87)?(. - _ebase_address):__vector_offset_default
 *(.vector_87)
                0x000000009d000208                . = ALIGN (0x4)
                0x0000000000000240                __vector_offset_88 = DEFINED (__vector_dispatch_88)?(. - _ebase_address):__vector_offset_default
 *(.vector_88)
                0x000000009d000208                . = ALIGN (0x4)
                0x0000000000000240                __vector_offset_89 = DEFINED (__vector_dispatch_89)?(. - _ebase_address):__vector_offset_default
 *(.vector_89)
                0x000000009d000208                . = ALIGN (0x4)
                0x0000000000000240                __vector_offset_90 = DEFINED (__vector_dispatch_90)?(. - _ebase_address):__vector_offset_default
 *(.vector_90)
                0x000000009d000208                . = ALIGN (0x4)
                0x0000000000000240                __vector_offset_91 = DEFINED (__vector_dispatch_91)?(. - _ebase_address):__vector_offset_default
 *(.vector_91)
                0x000000009d000208                . = ALIGN (0x4)
                0x0000000000000240                __vector_offset_92 = DEFINED (__vector_dispatch_92)?(. - _ebase_address):__vector_offset_default
 *(.vector_92)
                0x000000009d000208                . = ALIGN (0x4)
                0x0000000000000240                __vector_offset_93 = DEFINED (__vector_dispatch_93)?(. - _ebase_address):__vector_offset_default
 *(.vector_93)
                0x000000009d000208                . = ALIGN (0x4)
                0x0000000000000240                __vector_offset_94 = DEFINED (__vector_dispatch_94)?(. - _ebase_address):__vector_offset_default
 *(.vector_94)
                0x000000009d000208                . = ALIGN (0x4)
                0x0000000000000240                __vector_offset_95 = DEFINED (__vector_dispatch_95)?(. - _ebase_address):__vector_offset_default
 *(.vector_95)
                0x000000009d000208                . = ALIGN (0x4)
                0x0000000000000240                __vector_offset_96 = DEFINED (__vector_dispatch_96)?(. - _ebase_address):__vector_offset_default
 *(.vector_96)
                0x000000009d000208                . = ALIGN (0x4)
                0x0000000000000240                __vector_offset_97 = DEFINED (__vector_dispatch_97)?(. - _ebase_address):__vector_offset_default
 *(.vector_97)
                0x000000009d000208                . = ALIGN (0x4)
                0x0000000000000240                __vector_offset_98 = DEFINED (__vector_dispatch_98)?(. - _ebase_address):__vector_offset_default
 *(.vector_98)
                0x000000009d000208                . = ALIGN (0x4)
                0x0000000000000240                __vector_offset_99 = DEFINED (__vector_dispatch_99)?(. - _ebase_address):__vector_offset_default
 *(.vector_99)
                0x000000009d000208                . = ALIGN (0x4)
                0x0000000000000240                __vector_offset_100 = DEFINED (__vector_dispatch_100)?(. - _ebase_address):__vector_offset_default
 *(.vector_100)
                0x000000009d000208                . = ALIGN (0x4)
                0x0000000000000240                __vector_offset_101 = DEFINED (__vector_dispatch_101)?(. - _ebase_address):__vector_offset_default
 *(.vector_101)
                0x000000009d000208                . = ALIGN (0x4)
                0x0000000000000240                __vector_offset_102 = DEFINED (__vector_dispatch_102)?(. - _ebase_address):__vector_offset_default
 *(.vector_102)
                0x000000009d000208                . = ALIGN (0x4)
                0x0000000000000240                __vector_offset_103 = DEFINED (__vector_dispatch_103)?(. - _ebase_address):__vector_offset_default
 *(.vector_103)
                0x000000009d000208                . = ALIGN (0x4)
                0x0000000000000240                __vector_offset_104 = DEFINED (__vector_dispatch_104)?(. - _ebase_address):__vector_offset_default
 *(.vector_104)
                0x000000009d000208                . = ALIGN (0x4)
                0x0000000000000240                __vector_offset_105 = DEFINED (__vector_dispatch_105)?(. - _ebase_address):__vector_offset_default
 *(.vector_105)
                0x000000009d000208                . = ALIGN (0x4)
                0x0000000000000240                __vector_offset_106 = DEFINED (__vector_dispatch_106)?(. - _ebase_address):__vector_offset_default
 *(.vector_106)
                0x000000009d000208                . = ALIGN (0x4)
                0x0000000000000240                __vector_offset_107 = DEFINED (__vector_dispatch_107)?(. - _ebase_address):__vector_offset_default
 *(.vector_107)
                0x000000009d000208                . = ALIGN (0x4)
                0x0000000000000240                __vector_offset_108 = DEFINED (__vector_dispatch_108)?(. - _ebase_address):__vector_offset_default
 *(.vector_108)
                0x000000009d000208                . = ALIGN (0x4)
                0x0000000000000240                __vector_offset_109 = DEFINED (__vector_dispatch_109)?(. - _ebase_address):__vector_offset_default
 *(.vector_109)
                0x000000009d000208                . = ALIGN (0x4)
                0x0000000000000240                __vector_offset_110 = DEFINED (__vector_dispatch_110)?(. - _ebase_address):__vector_offset_default
 *(.vector_110)
                0x000000009d000208                . = ALIGN (0x4)
                0x0000000000000240                __vector_offset_111 = DEFINED (__vector_dispatch_111)?(. - _ebase_address):__vector_offset_default
 *(.vector_111)
                0x000000009d000208                . = ALIGN (0x4)
                0x0000000000000240                __vector_offset_112 = DEFINED (__vector_dispatch_112)?(. - _ebase_address):__vector_offset_default
 *(.vector_112)
                0x000000009d000208                . = ALIGN (0x4)
                0x0000000000000240                __vector_offset_113 = DEFINED (__vector_dispatch_113)?(. - _ebase_address):__vector_offset_default
 *(.vector_113)
                0x000000009d000208                . = ALIGN (0x4)
                0x0000000000000240                __vector_offset_114 = DEFINED (__vector_dispatch_114)?(. - _ebase_address):__vector_offset_default
 *(.vector_114)
                0x000000009d000208                . = ALIGN (0x4)
                0x0000000000000208                __vector_offset_115 = DEFINED (__vector_dispatch_115)?(. - _ebase_address):__vector_offset_default
 *(.vector_115)
 .vector_115    0x000000009d000208        0x8 build/default/production/_ext/1171490990/interrupts.o
                0x000000009d000208                __vector_dispatch_115
                0x000000009d000210                . = ALIGN (0x4)
                0x0000000000000240                __vector_offset_116 = DEFINED (__vector_dispatch_116)?(. - _ebase_address):__vector_offset_default
 *(.vector_116)
                0x000000009d000210                . = ALIGN (0x4)
                0x0000000000000210                __vector_offset_117 = DEFINED (__vector_dispatch_117)?(. - _ebase_address):__vector_offset_default
 *(.vector_117)
 .vector_117    0x000000009d000210        0x8 build/default/production/_ext/1171490990/interrupts.o
                0x000000009d000210                __vector_dispatch_117
                0x000000009d000218                . = ALIGN (0x4)
                0x0000000000000240                __vector_offset_118 = DEFINED (__vector_dispatch_118)?(. - _ebase_address):__vector_offset_default
 *(.vector_118)
                0x000000009d000218                . = ALIGN (0x4)
                0x0000000000000218                __vector_offset_119 = DEFINED (__vector_dispatch_119)?(. - _ebase_address):__vector_offset_default
 *(.vector_119)
 .vector_119    0x000000009d000218        0x8 build/default/production/_ext/1171490990/interrupts.o
                0x000000009d000218                __vector_dispatch_119
                0x000000009d000220                . = ALIGN (0x4)
                0x0000000000000240                __vector_offset_120 = DEFINED (__vector_dispatch_120)?(. - _ebase_address):__vector_offset_default
 *(.vector_120)
                0x000000009d000220                . = ALIGN (0x4)
                0x0000000000000240                __vector_offset_121 = DEFINED (__vector_dispatch_121)?(. - _ebase_address):__vector_offset_default
 *(.vector_121)
                0x000000009d000220                . = ALIGN (0x4)
                0x0000000000000240                __vector_offset_122 = DEFINED (__vector_dispatch_122)?(. - _ebase_address):__vector_offset_default
 *(.vector_122)
                0x000000009d000220                . = ALIGN (0x4)
                0x0000000000000240                __vector_offset_123 = DEFINED (__vector_dispatch_123)?(. - _ebase_address):__vector_offset_default
 *(.vector_123)
                0x000000009d000220                . = ALIGN (0x4)
                0x0000000000000240                __vector_offset_124 = DEFINED (__vector_dispatch_124)?(. - _ebase_address):__vector_offset_default
 *(.vector_124)
                0x000000009d000220                . = ALIGN (0x4)
                0x0000000000000240                __vector_offset_125 = DEFINED (__vector_dispatch_125)?(. - _ebase_address):__vector_offset_default
 *(.vector_125)
                0x000000009d000220                . = ALIGN (0x4)
                0x0000000000000240                __vector_offset_126 = DEFINED (__vector_dispatch_126)?(. - _ebase_address):__vector_offset_default
 *(.vector_126)
                0x000000009d000220                . = ALIGN (0x4)
                0x0000000000000240                __vector_offset_127 = DEFINED (__vector_dispatch_127)?(. - _ebase_address):__vector_offset_default
 *(.vector_127)
                0x000000009d000220                . = ALIGN (0x4)
                0x0000000000000240                __vector_offset_128 = DEFINED (__vector_dispatch_128)?(. - _ebase_address):__vector_offset_default
 *(.vector_128)
                0x000000009d000220                . = ALIGN (0x4)
                0x0000000000000240                __vector_offset_129 = DEFINED (__vector_dispatch_129)?(. - _ebase_address):__vector_offset_default
 *(.vector_129)
                0x000000009d000220                . = ALIGN (0x4)
                0x0000000000000240                __vector_offset_130 = DEFINED (__vector_dispatch_130)?(. - _ebase_address):__vector_offset_default
 *(.vector_130)
                0x000000009d000220                . = ALIGN (0x4)
                0x0000000000000240                __vector_offset_131 = DEFINED (__vector_dispatch_131)?(. - _ebase_address):__vector_offset_default
 *(.vector_131)
                0x000000009d000220                . = ALIGN (0x4)
                0x0000000000000240                __vector_offset_132 = DEFINED (__vector_dispatch_132)?(. - _ebase_address):__vector_offset_default
 *(.vector_132)
                0x000000009d000220                . = ALIGN (0x4)
                0x0000000000000240                __vector_offset_133 = DEFINED (__vector_dispatch_133)?(. - _ebase_address):__vector_offset_default
 *(.vector_133)
                0x000000009d000220                . = ALIGN (0x4)
                0x0000000000000220                __vector_offset_134 = DEFINED (__vector_dispatch_134)?(. - _ebase_address):__vector_offset_default
 *(.vector_134)
 .vector_134    0x000000009d000220        0x8 build/default/production/_ext/1171490990/interrupts.o
                0x000000009d000220                __vector_dispatch_134
                0x000000009d000228                . = ALIGN (0x4)
                0x0000000000000240                __vector_offset_135 = DEFINED (__vector_dispatch_135)?(. - _ebase_address):__vector_offset_default
 *(.vector_135)
                0x000000009d000228                . = ALIGN (0x4)
                0x0000000000000240                __vector_offset_136 = DEFINED (__vector_dispatch_136)?(. - _ebase_address):__vector_offset_default
 *(.vector_136)
                0x000000009d000228                . = ALIGN (0x4)
                0x0000000000000240                __vector_offset_137 = DEFINED (__vector_dispatch_137)?(. - _ebase_address):__vector_offset_default
 *(.vector_137)
                0x000000009d000228                . = ALIGN (0x4)
                0x0000000000000240                __vector_offset_138 = DEFINED (__vector_dispatch_138)?(. - _ebase_address):__vector_offset_default
 *(.vector_138)
                0x000000009d000228                . = ALIGN (0x4)
                0x0000000000000240                __vector_offset_139 = DEFINED (__vector_dispatch_139)?(. - _ebase_address):__vector_offset_default
 *(.vector_139)
                0x000000009d000228                . = ALIGN (0x4)
                0x0000000000000240                __vector_offset_140 = DEFINED (__vector_dispatch_140)?(. - _ebase_address):__vector_offset_default
 *(.vector_140)
                0x000000009d000228                . = ALIGN (0x4)
                0x0000000000000240                __vector_offset_141 = DEFINED (__vector_dispatch_141)?(. - _ebase_address):__vector_offset_default
 *(.vector_141)
                0x000000009d000228                . = ALIGN (0x4)
                0x0000000000000240                __vector_offset_142 = DEFINED (__vector_dispatch_142)?(. - _ebase_address):__vector_offset_default
 *(.vector_142)
                0x000000009d000228                . = ALIGN (0x4)
                0x0000000000000240                __vector_offset_143 = DEFINED (__vector_dispatch_143)?(. - _ebase_address):__vector_offset_default
 *(.vector_143)
                0x000000009d000228                . = ALIGN (0x4)
                0x0000000000000240                __vector_offset_144 = DEFINED (__vector_dispatch_144)?(. - _ebase_address):__vector_offset_default
 *(.vector_144)
                0x000000009d000228                . = ALIGN (0x4)
                0x0000000000000228                __vector_offset_145 = DEFINED (__vector_dispatch_145)?(. - _ebase_address):__vector_offset_default
 *(.vector_145)
 .vector_145    0x000000009d000228        0x8 build/default/production/_ext/1171490990/interrupts.o
                0x000000009d000228                __vector_dispatch_145
                0x000000009d000230                . = ALIGN (0x4)
                0x0000000000000230                __vector_offset_146 = DEFINED (__vector_dispatch_146)?(. - _ebase_address):__vector_offset_default
 *(.vector_146)
 .vector_146    0x000000009d000230        0x8 build/default/production/_ext/1171490990/interrupts.o
                0x000000009d000230                __vector_dispatch_146
                0x000000009d000238                . = ALIGN (0x4)
                0x0000000000000238                __vector_offset_147 = DEFINED (__vector_dispatch_147)?(. - _ebase_address):__vector_offset_default
 *(.vector_147)
 .vector_147    0x000000009d000238        0x8 build/default/production/_ext/1171490990/interrupts.o
                0x000000009d000238                __vector_dispatch_147
                0x000000009d000240                . = ALIGN (0x4)
                0x0000000000000240                __vector_offset_148 = DEFINED (__vector_dispatch_148)?(. - _ebase_address):__vector_offset_default
 *(.vector_148)
                0x000000009d000240                . = ALIGN (0x4)
                0x0000000000000240                __vector_offset_149 = DEFINED (__vector_dispatch_149)?(. - _ebase_address):__vector_offset_default
 *(.vector_149)
                0x000000009d000240                . = ALIGN (0x4)
                0x0000000000000240                __vector_offset_150 = DEFINED (__vector_dispatch_150)?(. - _ebase_address):__vector_offset_default
 *(.vector_150)
                0x000000009d000240                . = ALIGN (0x4)
                0x0000000000000240                __vector_offset_151 = DEFINED (__vector_dispatch_151)?(. - _ebase_address):__vector_offset_default
 *(.vector_151)
                0x000000009d000240                . = ALIGN (0x4)
                0x0000000000000240                __vector_offset_152 = DEFINED (__vector_dispatch_152)?(. - _ebase_address):__vector_offset_default
 *(.vector_152)
                0x000000009d000240                . = ALIGN (0x4)
                0x0000000000000240                __vector_offset_153 = DEFINED (__vector_dispatch_153)?(. - _ebase_address):__vector_offset_default
 *(.vector_153)
                0x000000009d000240                . = ALIGN (0x4)
                0x0000000000000240                __vector_offset_154 = DEFINED (__vector_dispatch_154)?(. - _ebase_address):__vector_offset_default
 *(.vector_154)
                0x000000009d000240                . = ALIGN (0x4)
                0x0000000000000240                __vector_offset_155 = DEFINED (__vector_dispatch_155)?(. - _ebase_address):__vector_offset_default
 *(.vector_155)
                0x000000009d000240                . = ALIGN (0x4)
                0x0000000000000240                __vector_offset_156 = DEFINED (__vector_dispatch_156)?(. - _ebase_address):__vector_offset_default
 *(.vector_156)
                0x000000009d000240                . = ALIGN (0x4)
                0x0000000000000240                __vector_offset_157 = DEFINED (__vector_dispatch_157)?(. - _ebase_address):__vector_offset_default
 *(.vector_157)
                0x000000009d000240                . = ALIGN (0x4)
                0x0000000000000240                __vector_offset_158 = DEFINED (__vector_dispatch_158)?(. - _ebase_address):__vector_offset_default
 *(.vector_158)
                0x000000009d000240                . = ALIGN (0x4)
                0x0000000000000240                __vector_offset_159 = DEFINED (__vector_dispatch_159)?(. - _ebase_address):__vector_offset_default
 *(.vector_159)
                0x000000009d000240                . = ALIGN (0x4)
                0x0000000000000240                __vector_offset_160 = DEFINED (__vector_dispatch_160)?(. - _ebase_address):__vector_offset_default
 *(.vector_160)
                0x000000009d000240                . = ALIGN (0x4)
                0x0000000000000240                __vector_offset_161 = DEFINED (__vector_dispatch_161)?(. - _ebase_address):__vector_offset_default
 *(.vector_161)
                0x000000009d000240                . = ALIGN (0x4)
                0x0000000000000240                __vector_offset_162 = DEFINED (__vector_dispatch_162)?(. - _ebase_address):__vector_offset_default
 *(.vector_162)
                0x000000009d000240                . = ALIGN (0x4)
                0x0000000000000240                __vector_offset_163 = DEFINED (__vector_dispatch_163)?(. - _ebase_address):__vector_offset_default
 *(.vector_163)
                0x000000009d000240                . = ALIGN (0x4)
                0x0000000000000240                __vector_offset_164 = DEFINED (__vector_dispatch_164)?(. - _ebase_address):__vector_offset_default
 *(.vector_164)
                0x000000009d000240                . = ALIGN (0x4)
                0x0000000000000240                __vector_offset_165 = DEFINED (__vector_dispatch_165)?(. - _ebase_address):__vector_offset_default
 *(.vector_165)
                0x000000009d000240                . = ALIGN (0x4)
                0x0000000000000240                __vector_offset_166 = DEFINED (__vector_dispatch_166)?(. - _ebase_address):__vector_offset_default
 *(.vector_166)
                0x000000009d000240                . = ALIGN (0x4)
                0x0000000000000240                __vector_offset_167 = DEFINED (__vector_dispatch_167)?(. - _ebase_address):__vector_offset_default
 *(.vector_167)
                0x000000009d000240                . = ALIGN (0x4)
                0x0000000000000240                __vector_offset_168 = DEFINED (__vector_dispatch_168)?(. - _ebase_address):__vector_offset_default
 *(.vector_168)
                0x000000009d000240                . = ALIGN (0x4)
                0x0000000000000240                __vector_offset_169 = DEFINED (__vector_dispatch_169)?(. - _ebase_address):__vector_offset_default
 *(.vector_169)
                0x000000009d000240                . = ALIGN (0x4)
                0x0000000000000240                __vector_offset_170 = DEFINED (__vector_dispatch_170)?(. - _ebase_address):__vector_offset_default
 *(.vector_170)
                0x000000009d000240                . = ALIGN (0x4)
                0x0000000000000240                __vector_offset_171 = DEFINED (__vector_dispatch_171)?(. - _ebase_address):__vector_offset_default
 *(.vector_171)
                0x000000009d000240                . = ALIGN (0x4)
                0x0000000000000240                __vector_offset_172 = DEFINED (__vector_dispatch_172)?(. - _ebase_address):__vector_offset_default
 *(.vector_172)
                0x000000009d000240                . = ALIGN (0x4)
                0x0000000000000240                __vector_offset_173 = DEFINED (__vector_dispatch_173)?(. - _ebase_address):__vector_offset_default
 *(.vector_173)
                0x000000009d000240                . = ALIGN (0x4)
                0x0000000000000240                __vector_offset_174 = DEFINED (__vector_dispatch_174)?(. - _ebase_address):__vector_offset_default
 *(.vector_174)
                0x000000009d000240                . = ALIGN (0x4)
                0x0000000000000240                __vector_offset_175 = DEFINED (__vector_dispatch_175)?(. - _ebase_address):__vector_offset_default
 *(.vector_175)
                0x000000009d000240                . = ALIGN (0x4)
                0x0000000000000240                __vector_offset_176 = DEFINED (__vector_dispatch_176)?(. - _ebase_address):__vector_offset_default
 *(.vector_176)
                0x000000009d000240                . = ALIGN (0x4)
                0x0000000000000240                __vector_offset_177 = DEFINED (__vector_dispatch_177)?(. - _ebase_address):__vector_offset_default
 *(.vector_177)
                0x000000009d000240                . = ALIGN (0x4)
                0x0000000000000240                __vector_offset_178 = DEFINED (__vector_dispatch_178)?(. - _ebase_address):__vector_offset_default
 *(.vector_178)
                0x000000009d000240                . = ALIGN (0x4)
                0x0000000000000240                __vector_offset_179 = DEFINED (__vector_dispatch_179)?(. - _ebase_address):__vector_offset_default
 *(.vector_179)
                0x000000009d000240                . = ALIGN (0x4)
                0x0000000000000240                __vector_offset_180 = DEFINED (__vector_dispatch_180)?(. - _ebase_address):__vector_offset_default
 *(.vector_180)
                0x000000009d000240                . = ALIGN (0x4)
                0x0000000000000240                __vector_offset_181 = DEFINED (__vector_dispatch_181)?(. - _ebase_address):__vector_offset_default
 *(.vector_181)
                0x000000009d000240                . = ALIGN (0x4)
                0x0000000000000240                __vector_offset_182 = DEFINED (__vector_dispatch_182)?(. - _ebase_address):__vector_offset_default
 *(.vector_182)
                0x000000009d000240                . = ALIGN (0x4)
                0x0000000000000240                __vector_offset_183 = DEFINED (__vector_dispatch_183)?(. - _ebase_address):__vector_offset_default
 *(.vector_183)
                0x000000009d000240                . = ALIGN (0x4)
                0x0000000000000240                __vector_offset_184 = DEFINED (__vector_dispatch_184)?(. - _ebase_address):__vector_offset_default
 *(.vector_184)
                0x000000009d000240                . = ALIGN (0x4)
                0x0000000000000240                __vector_offset_185 = DEFINED (__vector_dispatch_185)?(. - _ebase_address):__vector_offset_default
 *(.vector_185)
                0x000000009d000240                . = ALIGN (0x4)
                0x0000000000000240                __vector_offset_186 = DEFINED (__vector_dispatch_186)?(. - _ebase_address):__vector_offset_default
 *(.vector_186)
                0x000000009d000240                . = ALIGN (0x4)
                0x0000000000000240                __vector_offset_187 = DEFINED (__vector_dispatch_187)?(. - _ebase_address):__vector_offset_default
 *(.vector_187)
                0x000000009d000240                . = ALIGN (0x4)
                0x0000000000000240                __vector_offset_188 = DEFINED (__vector_dispatch_188)?(. - _ebase_address):__vector_offset_default
 *(.vector_188)
                0x000000009d000240                . = ALIGN (0x4)
                0x0000000000000240                __vector_offset_189 = DEFINED (__vector_dispatch_189)?(. - _ebase_address):__vector_offset_default
 *(.vector_189)
                0x000000009d000240                . = ALIGN (0x4)
                0x0000000000000240                __vector_offset_190 = DEFINED (__vector_dispatch_190)?(. - _ebase_address):__vector_offset_default
 *(.vector_190)
                0x000000009d000240                . = ALIGN (0x4)
                0x0000000000000240                __vector_offset_191 = DEFINED (__vector_dispatch_191)?(. - _ebase_address):__vector_offset_default
 *(.vector_191)
                0x000000009d000240                . = ALIGN (0x4)
                0x0000000000000240                __vector_offset_192 = DEFINED (__vector_dispatch_192)?(. - _ebase_address):__vector_offset_default
 *(.vector_192)
                0x000000009d000240                . = ALIGN (0x4)
                0x0000000000000240                __vector_offset_193 = DEFINED (__vector_dispatch_193)?(. - _ebase_address):__vector_offset_default
 *(.vector_193)
                0x000000009d000240                . = ALIGN (0x4)
                0x0000000000000240                __vector_offset_194 = DEFINED (__vector_dispatch_194)?(. - _ebase_address):__vector_offset_default
 *(.vector_194)
                0x000000009d000240                . = ALIGN (0x4)
                0x0000000000000240                __vector_offset_195 = DEFINED (__vector_dispatch_195)?(. - _ebase_address):__vector_offset_default
 *(.vector_195)
                0x000000009d000240                . = ALIGN (0x4)
                0x0000000000000240                __vector_offset_196 = DEFINED (__vector_dispatch_196)?(. - _ebase_address):__vector_offset_default
 *(.vector_196)
                0x000000009d000240                . = ALIGN (0x4)
                0x0000000000000240                __vector_offset_197 = DEFINED (__vector_dispatch_197)?(. - _ebase_address):__vector_offset_default
 *(.vector_197)
                0x000000009d000240                . = ALIGN (0x4)
                0x0000000000000240                __vector_offset_198 = DEFINED (__vector_dispatch_198)?(. - _ebase_address):__vector_offset_default
 *(.vector_198)
                0x000000009d000240                . = ALIGN (0x4)
                0x0000000000000240                __vector_offset_199 = DEFINED (__vector_dispatch_199)?(. - _ebase_address):__vector_offset_default
 *(.vector_199)
                0x000000009d000240                . = ALIGN (0x4)
                0x0000000000000240                __vector_offset_200 = DEFINED (__vector_dispatch_200)?(. - _ebase_address):__vector_offset_default
 *(.vector_200)
                0x000000009d000240                . = ALIGN (0x4)
                0x0000000000000240                __vector_offset_201 = DEFINED (__vector_dispatch_201)?(. - _ebase_address):__vector_offset_default
 *(.vector_201)
                0x000000009d000240                . = ALIGN (0x4)
                0x0000000000000240                __vector_offset_202 = DEFINED (__vector_dispatch_202)?(. - _ebase_address):__vector_offset_default
 *(.vector_202)
                0x000000009d000240                . = ALIGN (0x4)
                0x0000000000000240                __vector_offset_203 = DEFINED (__vector_dispatch_203)?(. - _ebase_address):__vector_offset_default
 *(.vector_203)
                0x000000009d000240                . = ALIGN (0x4)
                0x0000000000000240                __vector_offset_204 = DEFINED (__vector_dispatch_204)?(. - _ebase_address):__vector_offset_default
 *(.vector_204)
                0x000000009d000240                . = ALIGN (0x4)
                0x0000000000000240                __vector_offset_205 = DEFINED (__vector_dispatch_205)?(. - _ebase_address):__vector_offset_default
 *(.vector_205)
                0x000000009d000240                . = ALIGN (0x4)
                0x0000000000000240                __vector_offset_206 = DEFINED (__vector_dispatch_206)?(. - _ebase_address):__vector_offset_default
 *(.vector_206)
                0x000000009d000240                . = ALIGN (0x4)
                0x0000000000000240                __vector_offset_207 = DEFINED (__vector_dispatch_207)?(. - _ebase_address):__vector_offset_default
 *(.vector_207)
                0x000000009d000240                . = ALIGN (0x4)
                0x0000000000000240                __vector_offset_208 = DEFINED (__vector_dispatch_208)?(. - _ebase_address):__vector_offset_default
 *(.vector_208)
                0x000000009d000240                . = ALIGN (0x4)
                0x0000000000000240                __vector_offset_209 = DEFINED (__vector_dispatch_209)?(. - _ebase_address):__vector_offset_default
 *(.vector_209)
                0x000000009d000240                . = ALIGN (0x4)
                0x0000000000000240                __vector_offset_210 = DEFINED (__vector_dispatch_210)?(. - _ebase_address):__vector_offset_default
 *(.vector_210)
                0x000000009d000240                . = ALIGN (0x4)
                0x0000000000000240                __vector_offset_211 = DEFINED (__vector_dispatch_211)?(. - _ebase_address):__vector_offset_default
 *(.vector_211)
                0x000000009d000240                . = ALIGN (0x4)
                0x0000000000000240                __vector_offset_212 = DEFINED (__vector_dispatch_212)?(. - _ebase_address):__vector_offset_default
 *(.vector_212)
                0x000000009d000240                . = ALIGN (0x4)
                0x0000000000000240                __vector_offset_213 = DEFINED (__vector_dispatch_213)?(. - _ebase_address):__vector_offset_default
 *(.vector_213)
                0x000000009d000240                . = ALIGN (0x4)
                0x0000000000000240                __vector_offset_214 = DEFINED (__vector_dispatch_214)?(. - _ebase_address):__vector_offset_default
 *(.vector_214)
                0x000000009d000240                . = ALIGN (0x4)
                0x0000000000000240                __vector_offset_215 = DEFINED (__vector_dispatch_215)?(. - _ebase_address):__vector_offset_default
 *(.vector_215)
                0x000000009d000240                . = ALIGN (0x4)
                0x0000000000000240                __vector_offset_216 = DEFINED (__vector_dispatch_216)?(. - _ebase_address):__vector_offset_default
 *(.vector_216)
                0x000000009d000240                . = ALIGN (0x4)
                0x0000000000000240                __vector_offset_217 = DEFINED (__vector_dispatch_217)?(. - _ebase_address):__vector_offset_default
 *(.vector_217)
                0x000000009d000240                . = ALIGN (0x4)
                0x0000000000000240                __vector_offset_218 = DEFINED (__vector_dispatch_218)?(. - _ebase_address):__vector_offset_default
 *(.vector_218)
                0x000000009d000240                . = ALIGN (0x4)
                0x0000000000000240                __vector_offset_219 = DEFINED (__vector_dispatch_219)?(. - _ebase_address):__vector_offset_default
 *(.vector_219)
                0x000000009d000240                . = ALIGN (0x4)
                0x0000000000000240                __vector_offset_220 = DEFINED (__vector_dispatch_220)?(. - _ebase_address):__vector_offset_default
 *(.vector_220)
                0x000000009d000240                . = ALIGN (0x4)
                0x0000000000000240                __vector_offset_221 = DEFINED (__vector_dispatch_221)?(. - _ebase_address):__vector_offset_default
 *(.vector_221)
                0x000000009d000240                . = ALIGN (0x4)
                0x0000000000000240                __vector_offset_222 = DEFINED (__vector_dispatch_222)?(. - _ebase_address):__vector_offset_default
 *(.vector_222)
                0x000000009d000240                . = ALIGN (0x4)
                0x0000000000000240                __vector_offset_223 = DEFINED (__vector_dispatch_223)?(. - _ebase_address):__vector_offset_default
 *(.vector_223)
                0x000000009d000240                . = ALIGN (0x4)
                0x0000000000000240                __vector_offset_224 = DEFINED (__vector_dispatch_224)?(. - _ebase_address):__vector_offset_default
 *(.vector_224)
                0x000000009d000240                . = ALIGN (0x4)
                0x0000000000000240                __vector_offset_225 = DEFINED (__vector_dispatch_225)?(. - _ebase_address):__vector_offset_default
 *(.vector_225)
                0x000000009d000240                . = ALIGN (0x4)
                0x0000000000000240                __vector_offset_226 = DEFINED (__vector_dispatch_226)?(. - _ebase_address):__vector_offset_default
 *(.vector_226)
                0x000000009d000240                . = ALIGN (0x4)
                0x0000000000000240                __vector_offset_227 = DEFINED (__vector_dispatch_227)?(. - _ebase_address):__vector_offset_default
 *(.vector_227)
                0x000000009d000240                . = ALIGN (0x4)
                0x0000000000000240                __vector_offset_228 = DEFINED (__vector_dispatch_228)?(. - _ebase_address):__vector_offset_default
 *(.vector_228)
                0x000000009d000240                . = ALIGN (0x4)
                0x0000000000000240                __vector_offset_229 = DEFINED (__vector_dispatch_229)?(. - _ebase_address):__vector_offset_default
 *(.vector_229)
                0x000000009d000240                . = ALIGN (0x4)
                0x0000000000000240                __vector_offset_230 = DEFINED (__vector_dispatch_230)?(. - _ebase_address):__vector_offset_default
 *(.vector_230)
                0x000000009d000240                . = ALIGN (0x4)
                0x0000000000000240                __vector_offset_231 = DEFINED (__vector_dispatch_231)?(. - _ebase_address):__vector_offset_default
 *(.vector_231)
                0x000000009d000240                . = ALIGN (0x4)
                0x0000000000000240                __vector_offset_232 = DEFINED (__vector_dispatch_232)?(. - _ebase_address):__vector_offset_default
 *(.vector_232)
                0x000000009d000240                . = ALIGN (0x4)
                0x0000000000000240                __vector_offset_233 = DEFINED (__vector_dispatch_233)?(. - _ebase_address):__vector_offset_default
 *(.vector_233)
                0x000000009d000240                . = ALIGN (0x4)
                0x0000000000000240                __vector_offset_234 = DEFINED (__vector_dispatch_234)?(. - _ebase_address):__vector_offset_default
 *(.vector_234)
                0x000000009d000240                . = ALIGN (0x4)
                0x0000000000000240                __vector_offset_235 = DEFINED (__vector_dispatch_235)?(. - _ebase_address):__vector_offset_default
 *(.vector_235)
                0x000000009d000240                . = ALIGN (0x4)
                0x0000000000000240                __vector_offset_236 = DEFINED (__vector_dispatch_236)?(. - _ebase_address):__vector_offset_default
 *(.vector_236)
                0x000000009d000240                . = ALIGN (0x4)
                0x0000000000000240                __vector_offset_237 = DEFINED (__vector_dispatch_237)?(. - _ebase_address):__vector_offset_default
 *(.vector_237)
                0x000000009d000240                . = ALIGN (0x4)
                0x0000000000000240                __vector_offset_238 = DEFINED (__vector_dispatch_238)?(. - _ebase_address):__vector_offset_default
 *(.vector_238)
                0x000000009d000240                . = ALIGN (0x4)
                0x0000000000000240                __vector_offset_239 = DEFINED (__vector_dispatch_239)?(. - _ebase_address):__vector_offset_default
 *(.vector_239)
                0x000000009d000240                . = ALIGN (0x4)
                0x0000000000000240                __vector_offset_240 = DEFINED (__vector_dispatch_240)?(. - _ebase_address):__vector_offset_default
 *(.vector_240)
                0x000000009d000240                . = ALIGN (0x4)
                0x0000000000000240                __vector_offset_241 = DEFINED (__vector_dispatch_241)?(. - _ebase_address):__vector_offset_default
 *(.vector_241)
                0x000000009d000240                . = ALIGN (0x4)
                0x0000000000000240                __vector_offset_242 = DEFINED (__vector_dispatch_242)?(. - _ebase_address):__vector_offset_default
 *(.vector_242)
                0x000000009d000240                . = ALIGN (0x4)
                0x0000000000000240                __vector_offset_243 = DEFINED (__vector_dispatch_243)?(. - _ebase_address):__vector_offset_default
 *(.vector_243)
                0x000000009d000240                . = ALIGN (0x4)
                0x0000000000000240                __vector_offset_244 = DEFINED (__vector_dispatch_244)?(. - _ebase_address):__vector_offset_default
 *(.vector_244)
                0x000000009d000240                . = ALIGN (0x4)
                0x0000000000000240                __vector_offset_245 = DEFINED (__vector_dispatch_245)?(. - _ebase_address):__vector_offset_default
 *(.vector_245)
                0x000000009d000240                . = ALIGN (0x4)
                0x0000000000000240                __vector_offset_246 = DEFINED (__vector_dispatch_246)?(. - _ebase_address):__vector_offset_default
 *(.vector_246)
                0x000000009d000240                . = ALIGN (0x4)
                0x0000000000000240                __vector_offset_247 = DEFINED (__vector_dispatch_247)?(. - _ebase_address):__vector_offset_default
 *(.vector_247)
                0x000000009d000240                . = ALIGN (0x4)
                0x0000000000000240                __vector_offset_248 = DEFINED (__vector_dispatch_248)?(. - _ebase_address):__vector_offset_default
 *(.vector_248)
                0x000000009d000240                . = ALIGN (0x4)
                0x0000000000000240                __vector_offset_249 = DEFINED (__vector_dispatch_249)?(. - _ebase_address):__vector_offset_default
 *(.vector_249)
                0x000000009d000240                . = ALIGN (0x4)
                0x0000000000000240                __vector_offset_250 = DEFINED (__vector_dispatch_250)?(. - _ebase_address):__vector_offset_default
 *(.vector_250)
                0x000000009d000240                . = ALIGN (0x4)
                0x0000000000000240                __vector_offset_251 = DEFINED (__vector_dispatch_251)?(. - _ebase_address):__vector_offset_default
 *(.vector_251)
                0x000000009d000240                . = ALIGN (0x4)
                0x0000000000000240                __vector_offset_252 = DEFINED (__vector_dispatch_252)?(. - _ebase_address):__vector_offset_default
 *(.vector_252)
                0x000000009d000240                . = ALIGN (0x4)
                0x0000000000000240                __vector_offset_253 = DEFINED (__vector_dispatch_253)?(. - _ebase_address):__vector_offset_default
 *(.vector_253)
                0x000000009d000240                . = ALIGN (0x4)
                0x0000000000000240                __vector_offset_254 = DEFINED (__vector_dispatch_254)?(. - _ebase_address):__vector_offset_default
 *(.vector_254)
                0x000000009d000240                . = ALIGN (0x4)
                0x0000000000000240                __vector_offset_255 = DEFINED (__vector_dispatch_255)?(. - _ebase_address):__vector_offset_default
 *(.vector_255)
                0x000000009d000240                . = ALIGN (0x4)
                0x0000000000000240                __vector_offset_default = (. - _ebase_address)
 *(.vector_default)
 .vector_default
                0x000000009d000240       0x48 f:/microchip/xc32/v4.35/bin/bin/../../lib/gcc/pic32mx/8.3.1/../../../../pic32mx/lib/fpu64\libpic32.a(defaultinterrupt.o)
                0x000000009d000240                _DefaultInterrupt

.startup
 *(.startup)

.text           0x000000009d000288        0x0
 *(.stub .gnu.linkonce.t.*)
 *(.text.*personality*)
 *(.mips16.fn.*)
 *(.mips16.call.*)
 *(.gnu.warning)
                0x000000009d000288                . = ALIGN (0x4)

.init           0x000000009d000288        0x0
 *crti.o(.init)
 *crtbegin.o(.init)
 *(EXCLUDE_FILE(*crtn.o *crtend?.o *crtend.o) .init)
 *crtend.o(.init)
 *crtn.o(.init)
                0x000000009d000288                . = ALIGN (0x4)

.fini           0x000000009d000288        0x0
 *(.fini)
                0x000000009d000288                . = ALIGN (0x4)

.preinit_array  0x000000009d000288        0x0
                [!provide]                        PROVIDE (__preinit_array_start = .)
 *(.preinit_array)
                [!provide]                        PROVIDE (__preinit_array_end = .)
                0x000000009d000288                . = ALIGN (0x4)

.init_array     0x000000009d000288        0x0
                [!provide]                        PROVIDE (__init_array_start = .)
 *(SORT_BY_NAME(.init_array.*))
 *(.init_array)
                [!provide]                        PROVIDE (__init_array_end = .)
                0x000000009d000288                . = ALIGN (0x4)

.fini_array     0x000000009d000288        0x0
                [!provide]                        PROVIDE (__fini_array_start = .)
 *(SORT_BY_NAME(.fini_array.*))
 *(.fini_array)
                [!provide]                        PROVIDE (__fini_array_end = .)
                0x000000009d000288                . = ALIGN (0x4)

.ctors          0x000000009d000288        0x0
 *crtbegin.o(.ctors)
 *crtbegin?.o(.ctors)
 *(EXCLUDE_FILE(*crtend?.o *crtend.o) .ctors)
 *(SORT_BY_NAME(.ctors.*))
 *(.ctors)
                0x000000009d000288                . = ALIGN (0x4)

.dtors          0x000000009d000288        0x0
 *crtbegin.o(.dtors)
 *crtbegin?.o(.dtors)
 *(EXCLUDE_FILE(*crtend?.o *crtend.o) .dtors)
 *(SORT_BY_NAME(.dtors.*))
 *(.dtors)
                0x000000009d000288                . = ALIGN (0x4)

.rodata         0x000000009d000288        0x0
 *(.gnu.linkonce.r.*)
 *(.rodata1)
                0x000000009d000288                . = ALIGN (0x4)

.sdata2         0x000000009d000288        0x0
 *(.sdata2 .sdata2.* .gnu.linkonce.s2.*)
                0x000000009d000288                . = ALIGN (0x4)

.sbss2          0x000000009d000288        0x0
 *(.sbss2 .sbss2.* .gnu.linkonce.sb2.*)
                0x000000009d000288                . = ALIGN (0x4)

.eh_frame_hdr
 *(.eh_frame_hdr)
                0x000000009d000288                . = ALIGN (0x4)

.eh_frame
 *(.eh_frame)
                0x000000009d000288                . = ALIGN (0x4)

.gcc_except_table
 *(.gcc_except_table .gcc_except_table.*)
                0x000000009d000288                . = ALIGN (0x4)

.dbg_data       0x0000000080000000        0x0
                0x0000000080000000                . = (. + DEFINED (_DEBUGGER)?0x200:0x0)
                0x0000000080000000                . = (. + DEFINED (_DEBUGGER)?0x80:0x0)
                0x0000000080000000                . = (. + DEFINED (_DEBUGGER)?0x100:0x0)

.jcr            0x0000000080000000        0x0
 *(.jcr)
                0x0000000080000000                . = ALIGN (0x4)

.eh_frame
 *(.eh_frame)
                0x0000000080000000                . = ALIGN (0x4)

.gcc_except_table
 *(.gcc_except_table .gcc_except_table.*)
                0x0000000080000000                . = ALIGN (0x4)

.persist        0x0000000080000000        0x0
                0x0000000080000000                _persist_begin = .
 *(.persist .persist.*)
                0x0000000080000000                . = ALIGN (0x4)
                0x0000000080000000                _persist_end = .

.data           0x0000000080000000        0x0
 *(.gnu.linkonce.d.*)
 *(.data1)
                0x0000000080000000                . = ALIGN (0x4)
                0x0000000080000000                . = .
                0x0000000080007ff0                _gp = (ALIGN (0x10) + 0x7ff0)

.got            0x0000000080000000        0x0
 *(.got.plt)
 *(.got)
                0x0000000080000000                . = ALIGN (0x4)

.sdata          0x0000000080000000       0x28
                0x0000000080000000                _sdata_begin = .
 *(.sdata .sdata.* .gnu.linkonce.s.*)
 .sdata.compareValue
                0x0000000080000000        0x4 build/default/production/_ext/1249264884/plib_coretimer.o
 .sdata         0x0000000080000004       0x24 f:/microchip/xc32/v4.35/bin/bin/../../lib/gcc/pic32mx/8.3.1/../../../../pic32mx/lib/fpu64\libpic32.a(pic32_init_cache.o)
                0x0000000080000004                __pic32_icache_size
                0x0000000080000008                __pic32_icache_linesize
                0x000000008000000c                __pic32_icache_ways
                0x0000000080000010                __pic32_dcache_size
                0x0000000080000014                __pic32_dcache_linesize
                0x0000000080000018                __pic32_dcache_ways
                0x000000008000001c                __pic32_scache_size
                0x0000000080000020                __pic32_scache_linesize
                0x0000000080000024                __pic32_scache_ways
                0x0000000080000028                . = ALIGN (0x4)
                0x0000000080000028                _sdata_end = .

.lit8
 *(.lit8)

.lit4
 *(.lit4)
                0x0000000080000028                . = ALIGN (0x4)
                0x0000000080000028                _data_end = .
                0x0000000080000028                _bss_begin = .

.sbss           0x0000000080000028       0x10
                0x0000000080000028                _sbss_begin = .
 *(.dynsbss)
 *(.sbss .sbss.* .gnu.linkonce.sb.*)
 .sbss.isUARTTxComplete
                0x0000000080000028        0x1 build/default/production/_ext/1360937237/main.o
 .sbss.changeTempSamplingRate
                0x0000000080000029        0x1 build/default/production/_ext/1360937237/main.o
 .sbss.isTmr2Expired
                0x000000008000002a        0x1 build/default/production/_ext/1360937237/main.o
 *fill*         0x000000008000002b        0x1 
 .sbss.tempSampleRate
                0x000000008000002c        0x4 build/default/production/_ext/1360937237/main.o
 .sbss.tmr2Obj  0x0000000080000030        0x8 build/default/production/_ext/60181895/plib_tmr2.o
 *(.scommon)
                0x0000000080000038                _sbss_end = .
                0x0000000080000038                . = ALIGN (0x4)

.bss            0x0000000080000038        0x0
 *(.dynbss)
 *(COMMON)
                0x0000000080000038                . = ALIGN ((. != 0x0)?0x4:0x1)
                0x0000000080000038                . = ALIGN (0x4)
                0x0000000080000038                _end = .
                0x0000000080000038                _bss_end = .
                0x0000000000020000                _bmxdudba_address = LENGTH (kseg0_data_mem)
                0x0000000000020000                _bmxdupba_address = LENGTH (kseg0_data_mem)

/DISCARD/
 *(.pdr)
 *(.rel.dyn)
 *(.note.GNU-stack)
 *(.note.GNU-stack)
 *(.gnu_debuglink)
 *(.gnu.lto_*)
 *(.discard)

.gptab.sdata
 *(.gptab.data)
 *(.gptab.sdata)

.gptab.sbss
 *(.gptab.bss)
 *(.gptab.sbss)

.mdebug.abi32   0x0000000000000000        0x0
 *(.mdebug.abi32)
 .mdebug.abi32  0x0000000000000000        0x0 build/default/production/_ext/513455433/plib_i2c1_master.o
 .mdebug.abi32  0x0000000000000000        0x0 build/default/production/_ext/1171490990/initialization.o
 .mdebug.abi32  0x0000000000000000        0x0 build/default/production/_ext/163028504/xc32_monitor.o
 .mdebug.abi32  0x0000000000000000        0x0 build/default/production/_ext/1865200349/plib_evic.o
 .mdebug.abi32  0x0000000000000000        0x0 build/default/production/_ext/1360937237/main.o
 .mdebug.abi32  0x0000000000000000        0x0 build/default/production/_ext/1171490990/interrupts.o
 .mdebug.abi32  0x0000000000000000        0x0 build/default/production/_ext/1865254177/plib_gpio.o
 .mdebug.abi32  0x0000000000000000        0x0 build/default/production/_ext/60165520/plib_clk.o
 .mdebug.abi32  0x0000000000000000        0x0 build/default/production/_ext/1865657120/plib_uart2.o
 .mdebug.abi32  0x0000000000000000        0x0 build/default/production/_ext/1171490990/exceptions.o
 .mdebug.abi32  0x0000000000000000        0x0 build/default/production/_ext/1865161661/plib_dmac.o
 .mdebug.abi32  0x0000000000000000        0x0 build/default/production/_ext/1249264884/plib_coretimer.o
 .mdebug.abi32  0x0000000000000000        0x0 build/default/production/_ext/60181895/plib_tmr2.o
 .mdebug.abi32  0x0000000000000000        0x0 build/default/production/_ext/1360937237/bme280_driver.o
 .mdebug.abi32  0x0000000000000000        0x0 f:/microchip/xc32/v4.35/bin/bin/../../lib/gcc/pic32mx/8.3.1/fpu64\libgcc.a(_divdi3.o)
 .mdebug.abi32  0x0000000000000000        0x0 f:/microchip/xc32/v4.35/bin/bin/../../lib/gcc/pic32mx/8.3.1/../../../../pic32mx/lib/fpu64\libpic32.a(default-on-reset.o)
 .mdebug.abi32  0x0000000000000000        0x0 f:/microchip/xc32/v4.35/bin/bin/../../lib/gcc/pic32mx/8.3.1/../../../../pic32mx/lib/fpu64\libpic32.a(default-on-bootstrap.o)
 .mdebug.abi32  0x0000000000000000        0x0 f:/microchip/xc32/v4.35/bin/bin/../../lib/gcc/pic32mx/8.3.1/../../../../pic32mx/lib/fpu64\libpic32.a(defaultinterrupt.o)
 .mdebug.abi32  0x0000000000000000        0x0 f:/microchip/xc32/v4.35/bin/bin/../../lib/gcc/pic32mx/8.3.1/../../../../pic32mx/lib/fpu64\libc-musl.a(__sio_sprintf_dn.o)
 .mdebug.abi32  0x0000000000000000        0x0 f:/microchip/xc32/v4.35/bin/bin/../../lib/gcc/pic32mx/8.3.1/../../../../pic32mx/lib/fpu64\libc-musl.a(__fmt_d.o)
 .mdebug.abi32  0x0000000000000000        0x0 f:/microchip/xc32/v4.35/bin/bin/../../lib/gcc/pic32mx/8.3.1/../../../../pic32mx/lib/fpu64\libc-musl.a(__pop_int.o)
 .mdebug.abi32  0x0000000000000000        0x0 f:/microchip/xc32/v4.35/bin/bin/../../lib/gcc/pic32mx/8.3.1/../../../../pic32mx/lib/fpu64\libc-musl.a(__pop_ptr.o)
 .mdebug.abi32  0x0000000000000000        0x0 f:/microchip/xc32/v4.35/bin/bin/../../lib/gcc/pic32mx/8.3.1/../../../../pic32mx/lib/fpu64\libc-musl.a(__printf_core.o)
 .mdebug.abi32  0x0000000000000000        0x0 f:/microchip/xc32/v4.35/bin/bin/../../lib/gcc/pic32mx/8.3.1/../../../../pic32mx/lib/fpu64\libc-musl.a(atoi.o)
 .mdebug.abi32  0x0000000000000000        0x0 f:/microchip/xc32/v4.35/bin/bin/../../lib/gcc/pic32mx/8.3.1/../../../../pic32mx/lib/fpu64\libc-musl.a(memcpy.o)
 .mdebug.abi32  0x0000000000000000        0x0 f:/microchip/xc32/v4.35/bin/bin/../../lib/gcc/pic32mx/8.3.1/../../../../pic32mx/lib/fpu64\libc-musl.a(memset.o)
 .mdebug.abi32  0x0000000000000000        0x0 f:/microchip/xc32/v4.35/bin/bin/../../lib/gcc/pic32mx/8.3.1/../../../../pic32mx/lib/fpu64\libc-musl.a(tolower.o)
 .mdebug.abi32  0x0000000000000000        0x0 f:/microchip/xc32/v4.35/bin/bin/../../lib/gcc/pic32mx/8.3.1/../../../../pic32mx/lib/fpu64\libc-musl.a(__int_vsprintf.o)
 .mdebug.abi32  0x0000000000000000        0x0 f:/microchip/xc32/v4.35/bin/bin/../../lib/gcc/pic32mx/8.3.1/../../../../pic32mx/lib/fpu64\libc-musl.a(__cvt_u.o)
 .mdebug.abi32  0x0000000000000000        0x0 f:/microchip/xc32/v4.35/bin/bin/../../lib/gcc/pic32mx/8.3.1/../../../../pic32mx/lib/fpu64\libc-musl.a(__pop_float.o)
 .mdebug.abi32  0x0000000000000000        0x0 f:/microchip/xc32/v4.35/bin/bin/../../lib/gcc/pic32mx/8.3.1/../../../../pic32mx/lib/fpu64\libc-musl.a(__int_vsnprintf.o)
 .mdebug.abi32  0x0000000000000000        0x0 f:/microchip/xc32/v4.35/bin/bin/../../lib/gcc/pic32mx/8.3.1/../../../../pic32mx/lib/fpu64\libc-musl.a(__int_vfprintf.o)
 .mdebug.abi32  0x0000000000000000        0x0 f:/microchip/xc32/v4.35/bin/bin/../../lib/gcc/pic32mx/8.3.1/fpu64\libgcc.a(_udivdi3.o)
 .mdebug.abi32  0x0000000000000000        0x0 f:/microchip/xc32/v4.35/bin/bin/../../lib/gcc/pic32mx/8.3.1/fpu64\libgcc.a(_umoddi3.o)
 .mdebug.abi32  0x0000000000000000        0x0 f:/microchip/xc32/v4.35/bin/bin/../../lib/gcc/pic32mx/8.3.1/../../../../pic32mx/lib/fpu64\libpic32.a(errno.o)

.mdebug.abiN32
 *(.mdebug.abiN32)

.mdebug.abi64
 *(.mdebug.abi64)

.mdebug.abiO64
 *(.mdebug.abiO64)

.mdebug.eabi32
 *(.mdebug.eabi32)

.mdebug.eabi64
 *(.mdebug.eabi64)

.gcc_compiled_long32
 *(.gcc_compiled_long32)

.gcc_compiled_long64
 *(.gcc_compiled_long64)

.stab
 *(.stab)

.stabstr
 *(.stabstr)

.stab.excl
 *(.stab.excl)

.stab.exclstr
 *(.stab.exclstr)

.stab.index
 *(.stab.index)

.stab.indexstr
 *(.stab.indexstr)

.comment        0x0000000000000000       0x44
 *(.comment)
 .comment       0x0000000000000000       0x2b build/default/production/_ext/513455433/plib_i2c1_master.o
                                         0x2c (size before relaxing)
 .comment       0x000000000000002b       0x2c build/default/production/_ext/1171490990/initialization.o
 .comment       0x000000000000002b       0x2c build/default/production/_ext/163028504/xc32_monitor.o
 .comment       0x000000000000002b       0x2c build/default/production/_ext/1865200349/plib_evic.o
 .comment       0x000000000000002b       0x2c build/default/production/_ext/1360937237/main.o
 .comment       0x000000000000002b       0x2c build/default/production/_ext/1171490990/interrupts.o
 .comment       0x000000000000002b       0x2c build/default/production/_ext/1865254177/plib_gpio.o
 .comment       0x000000000000002b       0x2c build/default/production/_ext/60165520/plib_clk.o
 .comment       0x000000000000002b       0x2c build/default/production/_ext/1865657120/plib_uart2.o
 .comment       0x000000000000002b       0x2c build/default/production/_ext/1171490990/exceptions.o
 .comment       0x000000000000002b       0x2c build/default/production/_ext/1865161661/plib_dmac.o
 .comment       0x000000000000002b       0x2c build/default/production/_ext/1249264884/plib_coretimer.o
 .comment       0x000000000000002b       0x2c build/default/production/_ext/60181895/plib_tmr2.o
 .comment       0x000000000000002b       0x2c build/default/production/_ext/1360937237/bme280_driver.o
 .comment       0x000000000000002b       0x2c f:/microchip/xc32/v4.35/bin/bin/../../lib/gcc/pic32mx/8.3.1/fpu64\libgcc.a(_divdi3.o)
 .comment       0x000000000000002b       0x19 f:/microchip/xc32/v4.35/bin/bin/../../lib/gcc/pic32mx/8.3.1/../../../../pic32mx/lib/fpu64\libpic32.a(strlen.o)
                                         0x1a (size before relaxing)
 .comment       0x0000000000000044       0x2c f:/microchip/xc32/v4.35/bin/bin/../../lib/gcc/pic32mx/8.3.1/../../../../pic32mx/lib/fpu64\libpic32.a(default-on-reset.o)
 .comment       0x0000000000000044       0x2c f:/microchip/xc32/v4.35/bin/bin/../../lib/gcc/pic32mx/8.3.1/../../../../pic32mx/lib/fpu64\libpic32.a(default-on-bootstrap.o)
 .comment       0x0000000000000044       0x2c f:/microchip/xc32/v4.35/bin/bin/../../lib/gcc/pic32mx/8.3.1/../../../../pic32mx/lib/fpu64\libpic32.a(defaultinterrupt.o)
 .comment       0x0000000000000044       0x2c f:/microchip/xc32/v4.35/bin/bin/../../lib/gcc/pic32mx/8.3.1/../../../../pic32mx/lib/fpu64\libc-musl.a(__sio_sprintf_dn.o)
 .comment       0x0000000000000044       0x2c f:/microchip/xc32/v4.35/bin/bin/../../lib/gcc/pic32mx/8.3.1/../../../../pic32mx/lib/fpu64\libc-musl.a(__fmt_d.o)
 .comment       0x0000000000000044       0x2c f:/microchip/xc32/v4.35/bin/bin/../../lib/gcc/pic32mx/8.3.1/../../../../pic32mx/lib/fpu64\libc-musl.a(__pop_int.o)
 .comment       0x0000000000000044       0x2c f:/microchip/xc32/v4.35/bin/bin/../../lib/gcc/pic32mx/8.3.1/../../../../pic32mx/lib/fpu64\libc-musl.a(__pop_ptr.o)
 .comment       0x0000000000000044       0x2c f:/microchip/xc32/v4.35/bin/bin/../../lib/gcc/pic32mx/8.3.1/../../../../pic32mx/lib/fpu64\libc-musl.a(__printf_core.o)
 .comment       0x0000000000000044       0x2c f:/microchip/xc32/v4.35/bin/bin/../../lib/gcc/pic32mx/8.3.1/../../../../pic32mx/lib/fpu64\libc-musl.a(atoi.o)
 .comment       0x0000000000000044       0x2c f:/microchip/xc32/v4.35/bin/bin/../../lib/gcc/pic32mx/8.3.1/../../../../pic32mx/lib/fpu64\libc-musl.a(memcpy.o)
 .comment       0x0000000000000044       0x2c f:/microchip/xc32/v4.35/bin/bin/../../lib/gcc/pic32mx/8.3.1/../../../../pic32mx/lib/fpu64\libc-musl.a(memset.o)
 .comment       0x0000000000000044       0x2c f:/microchip/xc32/v4.35/bin/bin/../../lib/gcc/pic32mx/8.3.1/../../../../pic32mx/lib/fpu64\libc-musl.a(tolower.o)
 .comment       0x0000000000000044       0x2c f:/microchip/xc32/v4.35/bin/bin/../../lib/gcc/pic32mx/8.3.1/../../../../pic32mx/lib/fpu64\libc-musl.a(__int_vsprintf.o)
 .comment       0x0000000000000044       0x2c f:/microchip/xc32/v4.35/bin/bin/../../lib/gcc/pic32mx/8.3.1/../../../../pic32mx/lib/fpu64\libc-musl.a(__cvt_u.o)
 .comment       0x0000000000000044       0x2c f:/microchip/xc32/v4.35/bin/bin/../../lib/gcc/pic32mx/8.3.1/../../../../pic32mx/lib/fpu64\libc-musl.a(__pop_float.o)
 .comment       0x0000000000000044       0x2c f:/microchip/xc32/v4.35/bin/bin/../../lib/gcc/pic32mx/8.3.1/../../../../pic32mx/lib/fpu64\libc-musl.a(__int_vsnprintf.o)
 .comment       0x0000000000000044       0x2c f:/microchip/xc32/v4.35/bin/bin/../../lib/gcc/pic32mx/8.3.1/../../../../pic32mx/lib/fpu64\libc-musl.a(__int_vfprintf.o)
 .comment       0x0000000000000044       0x2c f:/microchip/xc32/v4.35/bin/bin/../../lib/gcc/pic32mx/8.3.1/fpu64\libgcc.a(_udivdi3.o)
 .comment       0x0000000000000044       0x2c f:/microchip/xc32/v4.35/bin/bin/../../lib/gcc/pic32mx/8.3.1/fpu64\libgcc.a(_umoddi3.o)
 .comment       0x0000000000000044       0x2c f:/microchip/xc32/v4.35/bin/bin/../../lib/gcc/pic32mx/8.3.1/../../../../pic32mx/lib/fpu64\libpic32.a(errno.o)

.debug
 *.elf(.debug)
 *(.debug)

.line
 *.elf(.line)
 *(.line)

.debug_srcinfo
 *.elf(.debug_srcinfo)
 *(.debug_srcinfo)

.debug_sfnames
 *.elf(.debug_sfnames)
 *(.debug_sfnames)

.debug_aranges  0x0000000000000000      0x808
 *.elf(.debug_aranges)
 *(.debug_aranges)
 .debug_aranges
                0x0000000000000000       0x70 build/default/production/_ext/513455433/plib_i2c1_master.o
 .debug_aranges
                0x0000000000000070       0x20 build/default/production/_ext/1171490990/initialization.o
 .debug_aranges
                0x0000000000000090       0x28 build/default/production/_ext/163028504/xc32_monitor.o
 .debug_aranges
                0x00000000000000b8       0x68 build/default/production/_ext/1865200349/plib_evic.o
 .debug_aranges
                0x0000000000000120       0x68 build/default/production/_ext/1360937237/main.o
 .debug_aranges
                0x0000000000000188       0x58 build/default/production/_ext/1171490990/interrupts.o
 .debug_aranges
                0x00000000000001e0       0x90 build/default/production/_ext/1865254177/plib_gpio.o
 .debug_aranges
                0x0000000000000270       0x20 build/default/production/_ext/60165520/plib_clk.o
 .debug_aranges
                0x0000000000000290       0xb0 build/default/production/_ext/1865657120/plib_uart2.o
 .debug_aranges
                0x0000000000000340       0x38 build/default/production/_ext/1171490990/exceptions.o
 .debug_aranges
                0x0000000000000378       0x88 build/default/production/_ext/1865161661/plib_dmac.o
 .debug_aranges
                0x0000000000000400       0x60 build/default/production/_ext/1249264884/plib_coretimer.o
 .debug_aranges
                0x0000000000000460       0x70 build/default/production/_ext/60181895/plib_tmr2.o
 .debug_aranges
                0x00000000000004d0       0x78 build/default/production/_ext/1360937237/bme280_driver.o
 .debug_aranges
                0x0000000000000548       0x20 f:/microchip/xc32/v4.35/bin/bin/../../lib/gcc/pic32mx/8.3.1/fpu64\libgcc.a(_divdi3.o)
 .debug_aranges
                0x0000000000000568       0x20 f:/microchip/xc32/v4.35/bin/bin/../../lib/gcc/pic32mx/8.3.1/../../../../pic32mx/lib/fpu64\libpic32.a(default-on-reset.o)
 .debug_aranges
                0x0000000000000588       0x20 f:/microchip/xc32/v4.35/bin/bin/../../lib/gcc/pic32mx/8.3.1/../../../../pic32mx/lib/fpu64\libpic32.a(default-on-bootstrap.o)
 .debug_aranges
                0x00000000000005a8       0x20 f:/microchip/xc32/v4.35/bin/bin/../../lib/gcc/pic32mx/8.3.1/../../../../pic32mx/lib/fpu64\libpic32.a(defaultinterrupt.o)
 .debug_aranges
                0x00000000000005c8       0x28 f:/microchip/xc32/v4.35/bin/bin/../../lib/gcc/pic32mx/8.3.1/../../../../pic32mx/lib/fpu64\libc-musl.a(__sio_sprintf_dn.o)
 .debug_aranges
                0x00000000000005f0       0x20 f:/microchip/xc32/v4.35/bin/bin/../../lib/gcc/pic32mx/8.3.1/../../../../pic32mx/lib/fpu64\libc-musl.a(__fmt_d.o)
 .debug_aranges
                0x0000000000000610       0x20 f:/microchip/xc32/v4.35/bin/bin/../../lib/gcc/pic32mx/8.3.1/../../../../pic32mx/lib/fpu64\libc-musl.a(__pop_int.o)
 .debug_aranges
                0x0000000000000630       0x20 f:/microchip/xc32/v4.35/bin/bin/../../lib/gcc/pic32mx/8.3.1/../../../../pic32mx/lib/fpu64\libc-musl.a(__pop_ptr.o)
 .debug_aranges
                0x0000000000000650       0x50 f:/microchip/xc32/v4.35/bin/bin/../../lib/gcc/pic32mx/8.3.1/../../../../pic32mx/lib/fpu64\libc-musl.a(__printf_core.o)
 .debug_aranges
                0x00000000000006a0       0x20 f:/microchip/xc32/v4.35/bin/bin/../../lib/gcc/pic32mx/8.3.1/../../../../pic32mx/lib/fpu64\libc-musl.a(atoi.o)
 .debug_aranges
                0x00000000000006c0       0x20 f:/microchip/xc32/v4.35/bin/bin/../../lib/gcc/pic32mx/8.3.1/../../../../pic32mx/lib/fpu64\libc-musl.a(memcpy.o)
 .debug_aranges
                0x00000000000006e0       0x20 f:/microchip/xc32/v4.35/bin/bin/../../lib/gcc/pic32mx/8.3.1/../../../../pic32mx/lib/fpu64\libc-musl.a(memset.o)
 .debug_aranges
                0x0000000000000700       0x28 f:/microchip/xc32/v4.35/bin/bin/../../lib/gcc/pic32mx/8.3.1/../../../../pic32mx/lib/fpu64\libc-musl.a(tolower.o)
 .debug_aranges
                0x0000000000000728       0x20 f:/microchip/xc32/v4.35/bin/bin/../../lib/gcc/pic32mx/8.3.1/../../../../pic32mx/lib/fpu64\libc-musl.a(__int_vsprintf.o)
 .debug_aranges
                0x0000000000000748       0x20 f:/microchip/xc32/v4.35/bin/bin/../../lib/gcc/pic32mx/8.3.1/../../../../pic32mx/lib/fpu64\libc-musl.a(__cvt_u.o)
 .debug_aranges
                0x0000000000000768       0x20 f:/microchip/xc32/v4.35/bin/bin/../../lib/gcc/pic32mx/8.3.1/../../../../pic32mx/lib/fpu64\libc-musl.a(__pop_float.o)
 .debug_aranges
                0x0000000000000788       0x20 f:/microchip/xc32/v4.35/bin/bin/../../lib/gcc/pic32mx/8.3.1/../../../../pic32mx/lib/fpu64\libc-musl.a(__int_vsnprintf.o)
 .debug_aranges
                0x00000000000007a8       0x20 f:/microchip/xc32/v4.35/bin/bin/../../lib/gcc/pic32mx/8.3.1/../../../../pic32mx/lib/fpu64\libc-musl.a(__int_vfprintf.o)
 .debug_aranges
                0x00000000000007c8       0x20 f:/microchip/xc32/v4.35/bin/bin/../../lib/gcc/pic32mx/8.3.1/fpu64\libgcc.a(_udivdi3.o)
 .debug_aranges
                0x00000000000007e8       0x20 f:/microchip/xc32/v4.35/bin/bin/../../lib/gcc/pic32mx/8.3.1/fpu64\libgcc.a(_umoddi3.o)

.debug_pubnames
 *.elf(.debug_pubnames)
 *(.debug_pubnames)

.debug_info     0x0000000000000000     0x825e
 *.elf(.debug_info .gnu.linkonce.wi.*)
 *(.debug_info .gnu.linkonce.wi.*)
 .debug_info    0x0000000000000000      0x819 build/default/production/_ext/513455433/plib_i2c1_master.o
 .debug_info    0x0000000000000819      0x333 build/default/production/_ext/1171490990/initialization.o
 .debug_info    0x0000000000000b4c       0xe7 build/default/production/_ext/163028504/xc32_monitor.o
 .debug_info    0x0000000000000c33      0x36c build/default/production/_ext/1865200349/plib_evic.o
 .debug_info    0x0000000000000f9f      0x9b5 build/default/production/_ext/1360937237/main.o
 .debug_info    0x0000000000001954      0x214 build/default/production/_ext/1171490990/interrupts.o
 .debug_info    0x0000000000001b68      0x880 build/default/production/_ext/1865254177/plib_gpio.o
 .debug_info    0x00000000000023e8      0x263 build/default/production/_ext/60165520/plib_clk.o
 .debug_info    0x000000000000264b      0x7cf build/default/production/_ext/1865657120/plib_uart2.o
 .debug_info    0x0000000000002e1a      0x109 build/default/production/_ext/1171490990/exceptions.o
 .debug_info    0x0000000000002f23      0xc6f build/default/production/_ext/1865161661/plib_dmac.o
 .debug_info    0x0000000000003b92      0x509 build/default/production/_ext/1249264884/plib_coretimer.o
 .debug_info    0x000000000000409b      0x5a6 build/default/production/_ext/60181895/plib_tmr2.o
 .debug_info    0x0000000000004641      0x8f6 build/default/production/_ext/1360937237/bme280_driver.o
 .debug_info    0x0000000000004f37      0x71c f:/microchip/xc32/v4.35/bin/bin/../../lib/gcc/pic32mx/8.3.1/fpu64\libgcc.a(_divdi3.o)
 .debug_info    0x0000000000005653       0x3f f:/microchip/xc32/v4.35/bin/bin/../../lib/gcc/pic32mx/8.3.1/../../../../pic32mx/lib/fpu64\libpic32.a(default-on-reset.o)
 .debug_info    0x0000000000005692       0x3f f:/microchip/xc32/v4.35/bin/bin/../../lib/gcc/pic32mx/8.3.1/../../../../pic32mx/lib/fpu64\libpic32.a(default-on-bootstrap.o)
 .debug_info    0x00000000000056d1       0x40 f:/microchip/xc32/v4.35/bin/bin/../../lib/gcc/pic32mx/8.3.1/../../../../pic32mx/lib/fpu64\libpic32.a(defaultinterrupt.o)
 .debug_info    0x0000000000005711      0x18b f:/microchip/xc32/v4.35/bin/bin/../../lib/gcc/pic32mx/8.3.1/../../../../pic32mx/lib/fpu64\libc-musl.a(__sio_sprintf_dn.o)
 .debug_info    0x000000000000589c      0x327 f:/microchip/xc32/v4.35/bin/bin/../../lib/gcc/pic32mx/8.3.1/../../../../pic32mx/lib/fpu64\libc-musl.a(__fmt_d.o)
 .debug_info    0x0000000000005bc3      0x14e f:/microchip/xc32/v4.35/bin/bin/../../lib/gcc/pic32mx/8.3.1/../../../../pic32mx/lib/fpu64\libc-musl.a(__pop_int.o)
 .debug_info    0x0000000000005d11      0x15e f:/microchip/xc32/v4.35/bin/bin/../../lib/gcc/pic32mx/8.3.1/../../../../pic32mx/lib/fpu64\libc-musl.a(__pop_ptr.o)
 .debug_info    0x0000000000005e6f      0xa27 f:/microchip/xc32/v4.35/bin/bin/../../lib/gcc/pic32mx/8.3.1/../../../../pic32mx/lib/fpu64\libc-musl.a(__printf_core.o)
 .debug_info    0x0000000000006896       0xee f:/microchip/xc32/v4.35/bin/bin/../../lib/gcc/pic32mx/8.3.1/../../../../pic32mx/lib/fpu64\libc-musl.a(atoi.o)
 .debug_info    0x0000000000006984       0xf7 f:/microchip/xc32/v4.35/bin/bin/../../lib/gcc/pic32mx/8.3.1/../../../../pic32mx/lib/fpu64\libc-musl.a(memcpy.o)
 .debug_info    0x0000000000006a7b       0xc0 f:/microchip/xc32/v4.35/bin/bin/../../lib/gcc/pic32mx/8.3.1/../../../../pic32mx/lib/fpu64\libc-musl.a(memset.o)
 .debug_info    0x0000000000006b3b      0x11b f:/microchip/xc32/v4.35/bin/bin/../../lib/gcc/pic32mx/8.3.1/../../../../pic32mx/lib/fpu64\libc-musl.a(tolower.o)
 .debug_info    0x0000000000006c56      0x127 f:/microchip/xc32/v4.35/bin/bin/../../lib/gcc/pic32mx/8.3.1/../../../../pic32mx/lib/fpu64\libc-musl.a(__int_vsprintf.o)
 .debug_info    0x0000000000006d7d      0x1d0 f:/microchip/xc32/v4.35/bin/bin/../../lib/gcc/pic32mx/8.3.1/../../../../pic32mx/lib/fpu64\libc-musl.a(__cvt_u.o)
 .debug_info    0x0000000000006f4d      0x134 f:/microchip/xc32/v4.35/bin/bin/../../lib/gcc/pic32mx/8.3.1/../../../../pic32mx/lib/fpu64\libc-musl.a(__pop_float.o)
 .debug_info    0x0000000000007081      0x1f5 f:/microchip/xc32/v4.35/bin/bin/../../lib/gcc/pic32mx/8.3.1/../../../../pic32mx/lib/fpu64\libc-musl.a(__int_vsnprintf.o)
 .debug_info    0x0000000000007276      0x1e0 f:/microchip/xc32/v4.35/bin/bin/../../lib/gcc/pic32mx/8.3.1/../../../../pic32mx/lib/fpu64\libc-musl.a(__int_vfprintf.o)
 .debug_info    0x0000000000007456      0x6ca f:/microchip/xc32/v4.35/bin/bin/../../lib/gcc/pic32mx/8.3.1/fpu64\libgcc.a(_udivdi3.o)
 .debug_info    0x0000000000007b20      0x73e f:/microchip/xc32/v4.35/bin/bin/../../lib/gcc/pic32mx/8.3.1/fpu64\libgcc.a(_umoddi3.o)

.debug_abbrev   0x0000000000000000     0x29a6
 *.elf(.debug_abbrev)
 *(.debug_abbrev)
 .debug_abbrev  0x0000000000000000      0x212 build/default/production/_ext/513455433/plib_i2c1_master.o
 .debug_abbrev  0x0000000000000212      0x149 build/default/production/_ext/1171490990/initialization.o
 .debug_abbrev  0x000000000000035b       0x9e build/default/production/_ext/163028504/xc32_monitor.o
 .debug_abbrev  0x00000000000003f9       0xe6 build/default/production/_ext/1865200349/plib_evic.o
 .debug_abbrev  0x00000000000004df      0x234 build/default/production/_ext/1360937237/main.o
 .debug_abbrev  0x0000000000000713       0x67 build/default/production/_ext/1171490990/interrupts.o
 .debug_abbrev  0x000000000000077a      0x28e build/default/production/_ext/1865254177/plib_gpio.o
 .debug_abbrev  0x0000000000000a08       0xd0 build/default/production/_ext/60165520/plib_clk.o
 .debug_abbrev  0x0000000000000ad8      0x232 build/default/production/_ext/1865657120/plib_uart2.o
 .debug_abbrev  0x0000000000000d0a       0x67 build/default/production/_ext/1171490990/exceptions.o
 .debug_abbrev  0x0000000000000d71      0x2e0 build/default/production/_ext/1865161661/plib_dmac.o
 .debug_abbrev  0x0000000000001051      0x178 build/default/production/_ext/1249264884/plib_coretimer.o
 .debug_abbrev  0x00000000000011c9      0x1c6 build/default/production/_ext/60181895/plib_tmr2.o
 .debug_abbrev  0x000000000000138f      0x21b build/default/production/_ext/1360937237/bme280_driver.o
 .debug_abbrev  0x00000000000015aa      0x1a3 f:/microchip/xc32/v4.35/bin/bin/../../lib/gcc/pic32mx/8.3.1/fpu64\libgcc.a(_divdi3.o)
 .debug_abbrev  0x000000000000174d       0x2e f:/microchip/xc32/v4.35/bin/bin/../../lib/gcc/pic32mx/8.3.1/../../../../pic32mx/lib/fpu64\libpic32.a(default-on-reset.o)
 .debug_abbrev  0x000000000000177b       0x2e f:/microchip/xc32/v4.35/bin/bin/../../lib/gcc/pic32mx/8.3.1/../../../../pic32mx/lib/fpu64\libpic32.a(default-on-bootstrap.o)
 .debug_abbrev  0x00000000000017a9       0x31 f:/microchip/xc32/v4.35/bin/bin/../../lib/gcc/pic32mx/8.3.1/../../../../pic32mx/lib/fpu64\libpic32.a(defaultinterrupt.o)
 .debug_abbrev  0x00000000000017da      0x100 f:/microchip/xc32/v4.35/bin/bin/../../lib/gcc/pic32mx/8.3.1/../../../../pic32mx/lib/fpu64\libc-musl.a(__sio_sprintf_dn.o)
 .debug_abbrev  0x00000000000018da      0x161 f:/microchip/xc32/v4.35/bin/bin/../../lib/gcc/pic32mx/8.3.1/../../../../pic32mx/lib/fpu64\libc-musl.a(__fmt_d.o)
 .debug_abbrev  0x0000000000001a3b       0xc3 f:/microchip/xc32/v4.35/bin/bin/../../lib/gcc/pic32mx/8.3.1/../../../../pic32mx/lib/fpu64\libc-musl.a(__pop_int.o)
 .debug_abbrev  0x0000000000001afe       0xd7 f:/microchip/xc32/v4.35/bin/bin/../../lib/gcc/pic32mx/8.3.1/../../../../pic32mx/lib/fpu64\libc-musl.a(__pop_ptr.o)
 .debug_abbrev  0x0000000000001bd5      0x318 f:/microchip/xc32/v4.35/bin/bin/../../lib/gcc/pic32mx/8.3.1/../../../../pic32mx/lib/fpu64\libc-musl.a(__printf_core.o)
 .debug_abbrev  0x0000000000001eed       0xc4 f:/microchip/xc32/v4.35/bin/bin/../../lib/gcc/pic32mx/8.3.1/../../../../pic32mx/lib/fpu64\libc-musl.a(atoi.o)
 .debug_abbrev  0x0000000000001fb1       0xaa f:/microchip/xc32/v4.35/bin/bin/../../lib/gcc/pic32mx/8.3.1/../../../../pic32mx/lib/fpu64\libc-musl.a(memcpy.o)
 .debug_abbrev  0x000000000000205b       0x91 f:/microchip/xc32/v4.35/bin/bin/../../lib/gcc/pic32mx/8.3.1/../../../../pic32mx/lib/fpu64\libc-musl.a(memset.o)
 .debug_abbrev  0x00000000000020ec       0xf1 f:/microchip/xc32/v4.35/bin/bin/../../lib/gcc/pic32mx/8.3.1/../../../../pic32mx/lib/fpu64\libc-musl.a(tolower.o)
 .debug_abbrev  0x00000000000021dd       0xb1 f:/microchip/xc32/v4.35/bin/bin/../../lib/gcc/pic32mx/8.3.1/../../../../pic32mx/lib/fpu64\libc-musl.a(__int_vsprintf.o)
 .debug_abbrev  0x000000000000228e       0xe5 f:/microchip/xc32/v4.35/bin/bin/../../lib/gcc/pic32mx/8.3.1/../../../../pic32mx/lib/fpu64\libc-musl.a(__cvt_u.o)
 .debug_abbrev  0x0000000000002373       0xc3 f:/microchip/xc32/v4.35/bin/bin/../../lib/gcc/pic32mx/8.3.1/../../../../pic32mx/lib/fpu64\libc-musl.a(__pop_float.o)
 .debug_abbrev  0x0000000000002436      0x13a f:/microchip/xc32/v4.35/bin/bin/../../lib/gcc/pic32mx/8.3.1/../../../../pic32mx/lib/fpu64\libc-musl.a(__int_vsnprintf.o)
 .debug_abbrev  0x0000000000002570      0x118 f:/microchip/xc32/v4.35/bin/bin/../../lib/gcc/pic32mx/8.3.1/../../../../pic32mx/lib/fpu64\libc-musl.a(__int_vfprintf.o)
 .debug_abbrev  0x0000000000002688      0x184 f:/microchip/xc32/v4.35/bin/bin/../../lib/gcc/pic32mx/8.3.1/fpu64\libgcc.a(_udivdi3.o)
 .debug_abbrev  0x000000000000280c      0x19a f:/microchip/xc32/v4.35/bin/bin/../../lib/gcc/pic32mx/8.3.1/fpu64\libgcc.a(_umoddi3.o)

.debug_line     0x0000000000000000     0x6776
 *.elf(.debug_line)
 *(.debug_line)
 .debug_line    0x0000000000000000      0x8c8 build/default/production/_ext/513455433/plib_i2c1_master.o
 .debug_line    0x00000000000008c8      0x490 build/default/production/_ext/1171490990/initialization.o
 .debug_line    0x0000000000000d58       0xe7 build/default/production/_ext/163028504/xc32_monitor.o
 .debug_line    0x0000000000000e3f      0x325 build/default/production/_ext/1865200349/plib_evic.o
 .debug_line    0x0000000000001164      0x71e build/default/production/_ext/1360937237/main.o
 .debug_line    0x0000000000001882      0x167 build/default/production/_ext/1171490990/interrupts.o
 .debug_line    0x00000000000019e9      0x4ce build/default/production/_ext/1865254177/plib_gpio.o
 .debug_line    0x0000000000001eb7      0x1a8 build/default/production/_ext/60165520/plib_clk.o
 .debug_line    0x000000000000205f      0x85b build/default/production/_ext/1865657120/plib_uart2.o
 .debug_line    0x00000000000028ba      0x147 build/default/production/_ext/1171490990/exceptions.o
 .debug_line    0x0000000000002a01      0x7c2 build/default/production/_ext/1865161661/plib_dmac.o
 .debug_line    0x00000000000031c3      0x28e build/default/production/_ext/1249264884/plib_coretimer.o
 .debug_line    0x0000000000003451      0x2c2 build/default/production/_ext/60181895/plib_tmr2.o
 .debug_line    0x0000000000003713      0x639 build/default/production/_ext/1360937237/bme280_driver.o
 .debug_line    0x0000000000003d4c      0x32a f:/microchip/xc32/v4.35/bin/bin/../../lib/gcc/pic32mx/8.3.1/fpu64\libgcc.a(_divdi3.o)
 .debug_line    0x0000000000004076       0xa8 f:/microchip/xc32/v4.35/bin/bin/../../lib/gcc/pic32mx/8.3.1/../../../../pic32mx/lib/fpu64\libpic32.a(default-on-reset.o)
 .debug_line    0x000000000000411e       0xac f:/microchip/xc32/v4.35/bin/bin/../../lib/gcc/pic32mx/8.3.1/../../../../pic32mx/lib/fpu64\libpic32.a(default-on-bootstrap.o)
 .debug_line    0x00000000000041ca       0xcb f:/microchip/xc32/v4.35/bin/bin/../../lib/gcc/pic32mx/8.3.1/../../../../pic32mx/lib/fpu64\libpic32.a(defaultinterrupt.o)
 .debug_line    0x0000000000004295      0x1ec f:/microchip/xc32/v4.35/bin/bin/../../lib/gcc/pic32mx/8.3.1/../../../../pic32mx/lib/fpu64\libc-musl.a(__sio_sprintf_dn.o)
 .debug_line    0x0000000000004481      0x256 f:/microchip/xc32/v4.35/bin/bin/../../lib/gcc/pic32mx/8.3.1/../../../../pic32mx/lib/fpu64\libc-musl.a(__fmt_d.o)
 .debug_line    0x00000000000046d7      0x252 f:/microchip/xc32/v4.35/bin/bin/../../lib/gcc/pic32mx/8.3.1/../../../../pic32mx/lib/fpu64\libc-musl.a(__pop_int.o)
 .debug_line    0x0000000000004929      0x20b f:/microchip/xc32/v4.35/bin/bin/../../lib/gcc/pic32mx/8.3.1/../../../../pic32mx/lib/fpu64\libc-musl.a(__pop_ptr.o)
 .debug_line    0x0000000000004b34      0x702 f:/microchip/xc32/v4.35/bin/bin/../../lib/gcc/pic32mx/8.3.1/../../../../pic32mx/lib/fpu64\libc-musl.a(__printf_core.o)
 .debug_line    0x0000000000005236      0x172 f:/microchip/xc32/v4.35/bin/bin/../../lib/gcc/pic32mx/8.3.1/../../../../pic32mx/lib/fpu64\libc-musl.a(atoi.o)
 .debug_line    0x00000000000053a8      0x13f f:/microchip/xc32/v4.35/bin/bin/../../lib/gcc/pic32mx/8.3.1/../../../../pic32mx/lib/fpu64\libc-musl.a(memcpy.o)
 .debug_line    0x00000000000054e7      0x133 f:/microchip/xc32/v4.35/bin/bin/../../lib/gcc/pic32mx/8.3.1/../../../../pic32mx/lib/fpu64\libc-musl.a(memset.o)
 .debug_line    0x000000000000561a      0x1b9 f:/microchip/xc32/v4.35/bin/bin/../../lib/gcc/pic32mx/8.3.1/../../../../pic32mx/lib/fpu64\libc-musl.a(tolower.o)
 .debug_line    0x00000000000057d3      0x1a3 f:/microchip/xc32/v4.35/bin/bin/../../lib/gcc/pic32mx/8.3.1/../../../../pic32mx/lib/fpu64\libc-musl.a(__int_vsprintf.o)
 .debug_line    0x0000000000005976      0x23a f:/microchip/xc32/v4.35/bin/bin/../../lib/gcc/pic32mx/8.3.1/../../../../pic32mx/lib/fpu64\libc-musl.a(__cvt_u.o)
 .debug_line    0x0000000000005bb0      0x1b3 f:/microchip/xc32/v4.35/bin/bin/../../lib/gcc/pic32mx/8.3.1/../../../../pic32mx/lib/fpu64\libc-musl.a(__pop_float.o)
 .debug_line    0x0000000000005d63      0x265 f:/microchip/xc32/v4.35/bin/bin/../../lib/gcc/pic32mx/8.3.1/../../../../pic32mx/lib/fpu64\libc-musl.a(__int_vsnprintf.o)
 .debug_line    0x0000000000005fc8      0x1c1 f:/microchip/xc32/v4.35/bin/bin/../../lib/gcc/pic32mx/8.3.1/../../../../pic32mx/lib/fpu64\libc-musl.a(__int_vfprintf.o)
 .debug_line    0x0000000000006189      0x2db f:/microchip/xc32/v4.35/bin/bin/../../lib/gcc/pic32mx/8.3.1/fpu64\libgcc.a(_udivdi3.o)
 .debug_line    0x0000000000006464      0x312 f:/microchip/xc32/v4.35/bin/bin/../../lib/gcc/pic32mx/8.3.1/fpu64\libgcc.a(_umoddi3.o)
 .debug_line    0x0000000000006776        0x0 f:/microchip/xc32/v4.35/bin/bin/../../lib/gcc/pic32mx/8.3.1/../../../../pic32mx/lib/fpu64\libpic32.a(errno.o)

.debug_frame    0x0000000000000000     0x12c0
 *.elf(.debug_frame)
 *(.debug_frame)
 .debug_frame   0x0000000000000000       0xd8 build/default/production/_ext/513455433/plib_i2c1_master.o
 .debug_frame   0x00000000000000d8       0x2c build/default/production/_ext/1171490990/initialization.o
 .debug_frame   0x0000000000000104       0x30 build/default/production/_ext/163028504/xc32_monitor.o
 .debug_frame   0x0000000000000134       0xd4 build/default/production/_ext/1865200349/plib_evic.o
 .debug_frame   0x0000000000000208      0x11c build/default/production/_ext/1360937237/main.o
 .debug_frame   0x0000000000000324      0x4b0 build/default/production/_ext/1171490990/interrupts.o
 .debug_frame   0x00000000000007d4      0x10c build/default/production/_ext/1865254177/plib_gpio.o
 .debug_frame   0x00000000000008e0       0x20 build/default/production/_ext/60165520/plib_clk.o
 .debug_frame   0x0000000000000900      0x178 build/default/production/_ext/1865657120/plib_uart2.o
 .debug_frame   0x0000000000000a78       0x70 build/default/production/_ext/1171490990/exceptions.o
 .debug_frame   0x0000000000000ae8      0x11c build/default/production/_ext/1865161661/plib_dmac.o
 .debug_frame   0x0000000000000c04       0xf4 build/default/production/_ext/1249264884/plib_coretimer.o
 .debug_frame   0x0000000000000cf8       0xcc build/default/production/_ext/60181895/plib_tmr2.o
 .debug_frame   0x0000000000000dc4      0x134 build/default/production/_ext/1360937237/bme280_driver.o
 .debug_frame   0x0000000000000ef8       0x20 f:/microchip/xc32/v4.35/bin/bin/../../lib/gcc/pic32mx/8.3.1/fpu64\libgcc.a(_divdi3.o)
 .debug_frame   0x0000000000000f18       0x20 f:/microchip/xc32/v4.35/bin/bin/../../lib/gcc/pic32mx/8.3.1/../../../../pic32mx/lib/fpu64\libpic32.a(default-on-reset.o)
 .debug_frame   0x0000000000000f38       0x20 f:/microchip/xc32/v4.35/bin/bin/../../lib/gcc/pic32mx/8.3.1/../../../../pic32mx/lib/fpu64\libpic32.a(default-on-bootstrap.o)
 .debug_frame   0x0000000000000f58       0x20 f:/microchip/xc32/v4.35/bin/bin/../../lib/gcc/pic32mx/8.3.1/../../../../pic32mx/lib/fpu64\libpic32.a(defaultinterrupt.o)
 .debug_frame   0x0000000000000f78       0x48 f:/microchip/xc32/v4.35/bin/bin/../../lib/gcc/pic32mx/8.3.1/../../../../pic32mx/lib/fpu64\libc-musl.a(__sio_sprintf_dn.o)
 .debug_frame   0x0000000000000fc0       0x38 f:/microchip/xc32/v4.35/bin/bin/../../lib/gcc/pic32mx/8.3.1/../../../../pic32mx/lib/fpu64\libc-musl.a(__fmt_d.o)
 .debug_frame   0x0000000000000ff8       0x20 f:/microchip/xc32/v4.35/bin/bin/../../lib/gcc/pic32mx/8.3.1/../../../../pic32mx/lib/fpu64\libc-musl.a(__pop_int.o)
 .debug_frame   0x0000000000001018       0x20 f:/microchip/xc32/v4.35/bin/bin/../../lib/gcc/pic32mx/8.3.1/../../../../pic32mx/lib/fpu64\libc-musl.a(__pop_ptr.o)
 .debug_frame   0x0000000000001038       0xc8 f:/microchip/xc32/v4.35/bin/bin/../../lib/gcc/pic32mx/8.3.1/../../../../pic32mx/lib/fpu64\libc-musl.a(__printf_core.o)
 .debug_frame   0x0000000000001100       0x20 f:/microchip/xc32/v4.35/bin/bin/../../lib/gcc/pic32mx/8.3.1/../../../../pic32mx/lib/fpu64\libc-musl.a(atoi.o)
 .debug_frame   0x0000000000001120       0x20 f:/microchip/xc32/v4.35/bin/bin/../../lib/gcc/pic32mx/8.3.1/../../../../pic32mx/lib/fpu64\libc-musl.a(memcpy.o)
 .debug_frame   0x0000000000001140       0x20 f:/microchip/xc32/v4.35/bin/bin/../../lib/gcc/pic32mx/8.3.1/../../../../pic32mx/lib/fpu64\libc-musl.a(memset.o)
 .debug_frame   0x0000000000001160       0x3c f:/microchip/xc32/v4.35/bin/bin/../../lib/gcc/pic32mx/8.3.1/../../../../pic32mx/lib/fpu64\libc-musl.a(tolower.o)
 .debug_frame   0x000000000000119c       0x2c f:/microchip/xc32/v4.35/bin/bin/../../lib/gcc/pic32mx/8.3.1/../../../../pic32mx/lib/fpu64\libc-musl.a(__int_vsprintf.o)
 .debug_frame   0x00000000000011c8       0x40 f:/microchip/xc32/v4.35/bin/bin/../../lib/gcc/pic32mx/8.3.1/../../../../pic32mx/lib/fpu64\libc-musl.a(__cvt_u.o)
 .debug_frame   0x0000000000001208       0x20 f:/microchip/xc32/v4.35/bin/bin/../../lib/gcc/pic32mx/8.3.1/../../../../pic32mx/lib/fpu64\libc-musl.a(__pop_float.o)
 .debug_frame   0x0000000000001228       0x2c f:/microchip/xc32/v4.35/bin/bin/../../lib/gcc/pic32mx/8.3.1/../../../../pic32mx/lib/fpu64\libc-musl.a(__int_vsnprintf.o)
 .debug_frame   0x0000000000001254       0x2c f:/microchip/xc32/v4.35/bin/bin/../../lib/gcc/pic32mx/8.3.1/../../../../pic32mx/lib/fpu64\libc-musl.a(__int_vfprintf.o)
 .debug_frame   0x0000000000001280       0x20 f:/microchip/xc32/v4.35/bin/bin/../../lib/gcc/pic32mx/8.3.1/fpu64\libgcc.a(_udivdi3.o)
 .debug_frame   0x00000000000012a0       0x20 f:/microchip/xc32/v4.35/bin/bin/../../lib/gcc/pic32mx/8.3.1/fpu64\libgcc.a(_umoddi3.o)

.debug_str      0x0000000000000000     0x9ca6
 *.elf(.debug_str)
 *(.debug_str)
 .debug_str     0x0000000000000000      0x79d build/default/production/_ext/513455433/plib_i2c1_master.o
 .debug_str     0x000000000000079d      0x48b build/default/production/_ext/1171490990/initialization.o
 .debug_str     0x0000000000000c28      0x2e2 build/default/production/_ext/163028504/xc32_monitor.o
 .debug_str     0x0000000000000f0a      0x495 build/default/production/_ext/1865200349/plib_evic.o
 .debug_str     0x000000000000139f      0x8d5 build/default/production/_ext/1360937237/main.o
 .debug_str     0x0000000000001c74      0x490 build/default/production/_ext/1171490990/interrupts.o
 .debug_str     0x0000000000002104      0x6d0 build/default/production/_ext/1865254177/plib_gpio.o
 .debug_str     0x00000000000027d4      0x3f7 build/default/production/_ext/60165520/plib_clk.o
 .debug_str     0x0000000000002bcb      0x6c8 build/default/production/_ext/1865657120/plib_uart2.o
 .debug_str     0x0000000000003293      0x3cc build/default/production/_ext/1171490990/exceptions.o
 .debug_str     0x000000000000365f      0x916 build/default/production/_ext/1865161661/plib_dmac.o
 .debug_str     0x0000000000003f75      0x526 build/default/production/_ext/1249264884/plib_coretimer.o
 .debug_str     0x000000000000449b      0x561 build/default/production/_ext/60181895/plib_tmr2.o
 .debug_str     0x00000000000049fc      0x5e7 build/default/production/_ext/1360937237/bme280_driver.o
 .debug_str     0x0000000000004fe3      0x40a f:/microchip/xc32/v4.35/bin/bin/../../lib/gcc/pic32mx/8.3.1/fpu64\libgcc.a(_divdi3.o)
 .debug_str     0x00000000000053ed      0x355 f:/microchip/xc32/v4.35/bin/bin/../../lib/gcc/pic32mx/8.3.1/../../../../pic32mx/lib/fpu64\libpic32.a(default-on-reset.o)
 .debug_str     0x0000000000005742      0x35d f:/microchip/xc32/v4.35/bin/bin/../../lib/gcc/pic32mx/8.3.1/../../../../pic32mx/lib/fpu64\libpic32.a(default-on-bootstrap.o)
 .debug_str     0x0000000000005a9f      0x36f f:/microchip/xc32/v4.35/bin/bin/../../lib/gcc/pic32mx/8.3.1/../../../../pic32mx/lib/fpu64\libpic32.a(defaultinterrupt.o)
 .debug_str     0x0000000000005e0e      0x3dd f:/microchip/xc32/v4.35/bin/bin/../../lib/gcc/pic32mx/8.3.1/../../../../pic32mx/lib/fpu64\libc-musl.a(__sio_sprintf_dn.o)
 .debug_str     0x00000000000061eb      0x3e2 f:/microchip/xc32/v4.35/bin/bin/../../lib/gcc/pic32mx/8.3.1/../../../../pic32mx/lib/fpu64\libc-musl.a(__fmt_d.o)
 .debug_str     0x00000000000065cd      0x3bb f:/microchip/xc32/v4.35/bin/bin/../../lib/gcc/pic32mx/8.3.1/../../../../pic32mx/lib/fpu64\libc-musl.a(__pop_int.o)
 .debug_str     0x0000000000006988      0x3bd f:/microchip/xc32/v4.35/bin/bin/../../lib/gcc/pic32mx/8.3.1/../../../../pic32mx/lib/fpu64\libc-musl.a(__pop_ptr.o)
 .debug_str     0x0000000000006d45      0x4d1 f:/microchip/xc32/v4.35/bin/bin/../../lib/gcc/pic32mx/8.3.1/../../../../pic32mx/lib/fpu64\libc-musl.a(__printf_core.o)
 .debug_str     0x0000000000007216      0x31b f:/microchip/xc32/v4.35/bin/bin/../../lib/gcc/pic32mx/8.3.1/../../../../pic32mx/lib/fpu64\libc-musl.a(atoi.o)
 .debug_str     0x0000000000007531      0x328 f:/microchip/xc32/v4.35/bin/bin/../../lib/gcc/pic32mx/8.3.1/../../../../pic32mx/lib/fpu64\libc-musl.a(memcpy.o)
 .debug_str     0x0000000000007859      0x314 f:/microchip/xc32/v4.35/bin/bin/../../lib/gcc/pic32mx/8.3.1/../../../../pic32mx/lib/fpu64\libc-musl.a(memset.o)
 .debug_str     0x0000000000007b6d      0x348 f:/microchip/xc32/v4.35/bin/bin/../../lib/gcc/pic32mx/8.3.1/../../../../pic32mx/lib/fpu64\libc-musl.a(tolower.o)
 .debug_str     0x0000000000007eb5      0x396 f:/microchip/xc32/v4.35/bin/bin/../../lib/gcc/pic32mx/8.3.1/../../../../pic32mx/lib/fpu64\libc-musl.a(__int_vsprintf.o)
 .debug_str     0x000000000000824b      0x39e f:/microchip/xc32/v4.35/bin/bin/../../lib/gcc/pic32mx/8.3.1/../../../../pic32mx/lib/fpu64\libc-musl.a(__cvt_u.o)
 .debug_str     0x00000000000085e9      0x3b0 f:/microchip/xc32/v4.35/bin/bin/../../lib/gcc/pic32mx/8.3.1/../../../../pic32mx/lib/fpu64\libc-musl.a(__pop_float.o)
 .debug_str     0x0000000000008999      0x3de f:/microchip/xc32/v4.35/bin/bin/../../lib/gcc/pic32mx/8.3.1/../../../../pic32mx/lib/fpu64\libc-musl.a(__int_vsnprintf.o)
 .debug_str     0x0000000000008d77      0x3d9 f:/microchip/xc32/v4.35/bin/bin/../../lib/gcc/pic32mx/8.3.1/../../../../pic32mx/lib/fpu64\libc-musl.a(__int_vfprintf.o)
 .debug_str     0x0000000000009150      0x40b f:/microchip/xc32/v4.35/bin/bin/../../lib/gcc/pic32mx/8.3.1/fpu64\libgcc.a(_udivdi3.o)
 .debug_str     0x000000000000955b      0x40b f:/microchip/xc32/v4.35/bin/bin/../../lib/gcc/pic32mx/8.3.1/fpu64\libgcc.a(_umoddi3.o)
 .debug_str     0x0000000000009966      0x340 f:/microchip/xc32/v4.35/bin/bin/../../lib/gcc/pic32mx/8.3.1/../../../../pic32mx/lib/fpu64\libpic32.a(errno.o)

.debug_loc      0x0000000000000000     0x4ec1
 *.elf(.debug_loc)
 *(.debug_loc)
 .debug_loc     0x0000000000000000      0x34a build/default/production/_ext/513455433/plib_i2c1_master.o
 .debug_loc     0x000000000000034a       0x25 build/default/production/_ext/1171490990/initialization.o
 .debug_loc     0x000000000000036f       0xc5 build/default/production/_ext/1865200349/plib_evic.o
 .debug_loc     0x0000000000000434      0x162 build/default/production/_ext/1360937237/main.o
 .debug_loc     0x0000000000000596      0x469 build/default/production/_ext/1865254177/plib_gpio.o
 .debug_loc     0x00000000000009ff      0x437 build/default/production/_ext/1865657120/plib_uart2.o
 .debug_loc     0x0000000000000e36      0xc5f build/default/production/_ext/1865161661/plib_dmac.o
 .debug_loc     0x0000000000001a95       0xc9 build/default/production/_ext/1249264884/plib_coretimer.o
 .debug_loc     0x0000000000001b5e       0x2b build/default/production/_ext/60181895/plib_tmr2.o
 .debug_loc     0x0000000000001b89      0x57a build/default/production/_ext/1360937237/bme280_driver.o
 .debug_loc     0x0000000000002103      0xb60 f:/microchip/xc32/v4.35/bin/bin/../../lib/gcc/pic32mx/8.3.1/fpu64\libgcc.a(_divdi3.o)
 .debug_loc     0x0000000000002c63       0x5f f:/microchip/xc32/v4.35/bin/bin/../../lib/gcc/pic32mx/8.3.1/../../../../pic32mx/lib/fpu64\libc-musl.a(__sio_sprintf_dn.o)
 .debug_loc     0x0000000000002cc2      0x241 f:/microchip/xc32/v4.35/bin/bin/../../lib/gcc/pic32mx/8.3.1/../../../../pic32mx/lib/fpu64\libc-musl.a(__fmt_d.o)
 .debug_loc     0x0000000000002f03       0x40 f:/microchip/xc32/v4.35/bin/bin/../../lib/gcc/pic32mx/8.3.1/../../../../pic32mx/lib/fpu64\libc-musl.a(__pop_ptr.o)
 .debug_loc     0x0000000000002f43      0x56c f:/microchip/xc32/v4.35/bin/bin/../../lib/gcc/pic32mx/8.3.1/../../../../pic32mx/lib/fpu64\libc-musl.a(__printf_core.o)
 .debug_loc     0x00000000000034af       0xbe f:/microchip/xc32/v4.35/bin/bin/../../lib/gcc/pic32mx/8.3.1/../../../../pic32mx/lib/fpu64\libc-musl.a(atoi.o)
 .debug_loc     0x000000000000356d       0xd6 f:/microchip/xc32/v4.35/bin/bin/../../lib/gcc/pic32mx/8.3.1/../../../../pic32mx/lib/fpu64\libc-musl.a(memcpy.o)
 .debug_loc     0x0000000000003643       0xb6 f:/microchip/xc32/v4.35/bin/bin/../../lib/gcc/pic32mx/8.3.1/../../../../pic32mx/lib/fpu64\libc-musl.a(memset.o)
 .debug_loc     0x00000000000036f9       0x89 f:/microchip/xc32/v4.35/bin/bin/../../lib/gcc/pic32mx/8.3.1/../../../../pic32mx/lib/fpu64\libc-musl.a(__int_vsprintf.o)
 .debug_loc     0x0000000000003782      0x1fe f:/microchip/xc32/v4.35/bin/bin/../../lib/gcc/pic32mx/8.3.1/../../../../pic32mx/lib/fpu64\libc-musl.a(__cvt_u.o)
 .debug_loc     0x0000000000003980      0x113 f:/microchip/xc32/v4.35/bin/bin/../../lib/gcc/pic32mx/8.3.1/../../../../pic32mx/lib/fpu64\libc-musl.a(__int_vsnprintf.o)
 .debug_loc     0x0000000000003a93       0x9f f:/microchip/xc32/v4.35/bin/bin/../../lib/gcc/pic32mx/8.3.1/../../../../pic32mx/lib/fpu64\libc-musl.a(__int_vfprintf.o)
 .debug_loc     0x0000000000003b32      0x9f5 f:/microchip/xc32/v4.35/bin/bin/../../lib/gcc/pic32mx/8.3.1/fpu64\libgcc.a(_udivdi3.o)
 .debug_loc     0x0000000000004527      0x99a f:/microchip/xc32/v4.35/bin/bin/../../lib/gcc/pic32mx/8.3.1/fpu64\libgcc.a(_umoddi3.o)

.debug_macinfo
 *.elf(.debug_macinfo)
 *(.debug_macinfo)

.debug_weaknames
 *.elf(.debug_weaknames)
 *(.debug_weaknames)

.debug_funcnames
 *.elf(.debug_funcnames)
 *(.debug_funcnames)

.debug_typenames
 *.elf(.debug_typenames)
 *(.debug_typenames)

.debug_varnames
 *.elf(.debug_varnames)
 *(.debug_varnames)

.debug_pubtypes
 *.elf(.debug_pubtypes)
 *(.debug_pubtypes)

.debug_ranges   0x0000000000000000      0x960
 *.elf(.debug_ranges)
 *(.debug_ranges)
 .debug_ranges  0x0000000000000000       0x80 build/default/production/_ext/513455433/plib_i2c1_master.o
 .debug_ranges  0x0000000000000080       0x10 build/default/production/_ext/1171490990/initialization.o
 .debug_ranges  0x0000000000000090       0x18 build/default/production/_ext/163028504/xc32_monitor.o
 .debug_ranges  0x00000000000000a8       0x58 build/default/production/_ext/1865200349/plib_evic.o
 .debug_ranges  0x0000000000000100       0x58 build/default/production/_ext/1360937237/main.o
 .debug_ranges  0x0000000000000158       0x48 build/default/production/_ext/1171490990/interrupts.o
 .debug_ranges  0x00000000000001a0       0x80 build/default/production/_ext/1865254177/plib_gpio.o
 .debug_ranges  0x0000000000000220       0x10 build/default/production/_ext/60165520/plib_clk.o
 .debug_ranges  0x0000000000000230       0xf8 build/default/production/_ext/1865657120/plib_uart2.o
 .debug_ranges  0x0000000000000328       0x28 build/default/production/_ext/1171490990/exceptions.o
 .debug_ranges  0x0000000000000350       0x78 build/default/production/_ext/1865161661/plib_dmac.o
 .debug_ranges  0x00000000000003c8       0x50 build/default/production/_ext/1249264884/plib_coretimer.o
 .debug_ranges  0x0000000000000418       0x60 build/default/production/_ext/60181895/plib_tmr2.o
 .debug_ranges  0x0000000000000478       0x80 build/default/production/_ext/1360937237/bme280_driver.o
 .debug_ranges  0x00000000000004f8       0xc0 f:/microchip/xc32/v4.35/bin/bin/../../lib/gcc/pic32mx/8.3.1/fpu64\libgcc.a(_divdi3.o)
 .debug_ranges  0x00000000000005b8       0x10 f:/microchip/xc32/v4.35/bin/bin/../../lib/gcc/pic32mx/8.3.1/../../../../pic32mx/lib/fpu64\libpic32.a(default-on-reset.o)
 .debug_ranges  0x00000000000005c8       0x10 f:/microchip/xc32/v4.35/bin/bin/../../lib/gcc/pic32mx/8.3.1/../../../../pic32mx/lib/fpu64\libpic32.a(default-on-bootstrap.o)
 .debug_ranges  0x00000000000005d8       0x10 f:/microchip/xc32/v4.35/bin/bin/../../lib/gcc/pic32mx/8.3.1/../../../../pic32mx/lib/fpu64\libpic32.a(defaultinterrupt.o)
 .debug_ranges  0x00000000000005e8       0x18 f:/microchip/xc32/v4.35/bin/bin/../../lib/gcc/pic32mx/8.3.1/../../../../pic32mx/lib/fpu64\libc-musl.a(__sio_sprintf_dn.o)
 .debug_ranges  0x0000000000000600       0x10 f:/microchip/xc32/v4.35/bin/bin/../../lib/gcc/pic32mx/8.3.1/../../../../pic32mx/lib/fpu64\libc-musl.a(__fmt_d.o)
 .debug_ranges  0x0000000000000610       0x10 f:/microchip/xc32/v4.35/bin/bin/../../lib/gcc/pic32mx/8.3.1/../../../../pic32mx/lib/fpu64\libc-musl.a(__pop_int.o)
 .debug_ranges  0x0000000000000620       0x10 f:/microchip/xc32/v4.35/bin/bin/../../lib/gcc/pic32mx/8.3.1/../../../../pic32mx/lib/fpu64\libc-musl.a(__pop_ptr.o)
 .debug_ranges  0x0000000000000630       0xe8 f:/microchip/xc32/v4.35/bin/bin/../../lib/gcc/pic32mx/8.3.1/../../../../pic32mx/lib/fpu64\libc-musl.a(__printf_core.o)
 .debug_ranges  0x0000000000000718       0x28 f:/microchip/xc32/v4.35/bin/bin/../../lib/gcc/pic32mx/8.3.1/../../../../pic32mx/lib/fpu64\libc-musl.a(atoi.o)
 .debug_ranges  0x0000000000000740       0x10 f:/microchip/xc32/v4.35/bin/bin/../../lib/gcc/pic32mx/8.3.1/../../../../pic32mx/lib/fpu64\libc-musl.a(memcpy.o)
 .debug_ranges  0x0000000000000750       0x10 f:/microchip/xc32/v4.35/bin/bin/../../lib/gcc/pic32mx/8.3.1/../../../../pic32mx/lib/fpu64\libc-musl.a(memset.o)
 .debug_ranges  0x0000000000000760       0x18 f:/microchip/xc32/v4.35/bin/bin/../../lib/gcc/pic32mx/8.3.1/../../../../pic32mx/lib/fpu64\libc-musl.a(tolower.o)
 .debug_ranges  0x0000000000000778       0x10 f:/microchip/xc32/v4.35/bin/bin/../../lib/gcc/pic32mx/8.3.1/../../../../pic32mx/lib/fpu64\libc-musl.a(__int_vsprintf.o)
 .debug_ranges  0x0000000000000788       0x10 f:/microchip/xc32/v4.35/bin/bin/../../lib/gcc/pic32mx/8.3.1/../../../../pic32mx/lib/fpu64\libc-musl.a(__cvt_u.o)
 .debug_ranges  0x0000000000000798       0x10 f:/microchip/xc32/v4.35/bin/bin/../../lib/gcc/pic32mx/8.3.1/../../../../pic32mx/lib/fpu64\libc-musl.a(__pop_float.o)
 .debug_ranges  0x00000000000007a8       0x10 f:/microchip/xc32/v4.35/bin/bin/../../lib/gcc/pic32mx/8.3.1/../../../../pic32mx/lib/fpu64\libc-musl.a(__int_vsnprintf.o)
 .debug_ranges  0x00000000000007b8       0x10 f:/microchip/xc32/v4.35/bin/bin/../../lib/gcc/pic32mx/8.3.1/../../../../pic32mx/lib/fpu64\libc-musl.a(__int_vfprintf.o)
 .debug_ranges  0x00000000000007c8       0xd8 f:/microchip/xc32/v4.35/bin/bin/../../lib/gcc/pic32mx/8.3.1/fpu64\libgcc.a(_udivdi3.o)
 .debug_ranges  0x00000000000008a0       0xc0 f:/microchip/xc32/v4.35/bin/bin/../../lib/gcc/pic32mx/8.3.1/fpu64\libgcc.a(_umoddi3.o)

.gnu.attributes
                0x0000000000000000       0x10
 *(.gnu.attributes)
 .gnu.attributes
                0x0000000000000000       0x10 f:/microchip/xc32/v4.35/bin/bin/../../lib/gcc/pic32mx/8.3.1/../../../../pic32mx/lib/fpu64\debug-exception-return.o
 .gnu.attributes
                0x0000000000000010       0x10 build/default/production/_ext/513455433/plib_i2c1_master.o
 .gnu.attributes
                0x0000000000000020       0x10 build/default/production/_ext/1171490990/initialization.o
 .gnu.attributes
                0x0000000000000030       0x10 build/default/production/_ext/163028504/xc32_monitor.o
 .gnu.attributes
                0x0000000000000040       0x10 build/default/production/_ext/1865200349/plib_evic.o
 .gnu.attributes
                0x0000000000000050       0x10 build/default/production/_ext/1360937237/main.o
 .gnu.attributes
                0x0000000000000060       0x10 build/default/production/_ext/1171490990/interrupts.o
 .gnu.attributes
                0x0000000000000070       0x10 build/default/production/_ext/1865254177/plib_gpio.o
 .gnu.attributes
                0x0000000000000080       0x10 build/default/production/_ext/60165520/plib_clk.o
 .gnu.attributes
                0x0000000000000090       0x10 build/default/production/_ext/1865657120/plib_uart2.o
 .gnu.attributes
                0x00000000000000a0       0x10 build/default/production/_ext/1171490990/exceptions.o
 .gnu.attributes
                0x00000000000000b0       0x10 build/default/production/_ext/1865161661/plib_dmac.o
 .gnu.attributes
                0x00000000000000c0       0x10 build/default/production/_ext/1249264884/plib_coretimer.o
 .gnu.attributes
                0x00000000000000d0       0x10 build/default/production/_ext/60181895/plib_tmr2.o
 .gnu.attributes
                0x00000000000000e0       0x10 build/default/production/_ext/1360937237/bme280_driver.o
 .gnu.attributes
                0x00000000000000f0       0x10 C:\Users\huope\AppData\Local\Temp\cce2fMSS.o
 .gnu.attributes
                0x0000000000000100       0x10 C:\Users\huope\AppData\Local\Temp\cciHtz9s.o
 .gnu.attributes
                0x0000000000000110       0x10 C:\Users\huope\AppData\Local\Temp\ccQtjejd.o
 .gnu.attributes
                0x0000000000000120       0x10 C:\Users\huope\AppData\Local\Temp\ccuT72u7.o
 .gnu.attributes
                0x0000000000000130       0x10 f:/microchip/xc32/v4.35/bin/bin/../../lib/gcc/pic32mx/8.3.1/../../../../pic32mx/lib/fpu64\pic32_software_reset.o
 .gnu.attributes
                0x0000000000000140       0x10 f:/microchip/xc32/v4.35/bin/bin/../../lib/gcc/pic32mx/8.3.1/fpu64\libgcc.a(_divdi3.o)
 .gnu.attributes
                0x0000000000000150       0x10 f:/microchip/xc32/v4.35/bin/bin/../../lib/gcc/pic32mx/8.3.1/../../../../pic32mx/lib/fpu64\libpic32.a(strlen.o)
 .gnu.attributes
                0x0000000000000160       0x10 f:/microchip/xc32/v4.35/bin/bin/../../lib/gcc/pic32mx/8.3.1/../../../../pic32mx/lib/fpu64\libpic32.a(default-on-reset.o)
 .gnu.attributes
                0x0000000000000170       0x10 f:/microchip/xc32/v4.35/bin/bin/../../lib/gcc/pic32mx/8.3.1/../../../../pic32mx/lib/fpu64\libpic32.a(default-on-bootstrap.o)
 .gnu.attributes
                0x0000000000000180       0x10 f:/microchip/xc32/v4.35/bin/bin/../../lib/gcc/pic32mx/8.3.1/../../../../pic32mx/lib/fpu64\libpic32.a(default-nmi-handler.o)
 .gnu.attributes
                0x0000000000000190       0x10 f:/microchip/xc32/v4.35/bin/bin/../../lib/gcc/pic32mx/8.3.1/../../../../pic32mx/lib/fpu64\libpic32.a(pic32_data_init_core.o)
 .gnu.attributes
                0x00000000000001a0       0x10 f:/microchip/xc32/v4.35/bin/bin/../../lib/gcc/pic32mx/8.3.1/../../../../pic32mx/lib/fpu64\libpic32.a(pic32_init_cache.o)
 .gnu.attributes
                0x00000000000001b0       0x10 f:/microchip/xc32/v4.35/bin/bin/../../lib/gcc/pic32mx/8.3.1/../../../../pic32mx/lib/fpu64\libpic32.a(pic32_init_tlb_ebi_sqi.o)
 .gnu.attributes
                0x00000000000001c0       0x10 f:/microchip/xc32/v4.35/bin/bin/../../lib/gcc/pic32mx/8.3.1/../../../../pic32mx/lib/fpu64\libpic32.a(general-exception.o)
 .gnu.attributes
                0x00000000000001d0       0x10 f:/microchip/xc32/v4.35/bin/bin/../../lib/gcc/pic32mx/8.3.1/../../../../pic32mx/lib/fpu64\libpic32.a(cache-err-exception.o)
 .gnu.attributes
                0x00000000000001e0       0x10 f:/microchip/xc32/v4.35/bin/bin/../../lib/gcc/pic32mx/8.3.1/../../../../pic32mx/lib/fpu64\libpic32.a(simple-tlb-refill-exception.o)
 .gnu.attributes
                0x00000000000001f0       0x10 f:/microchip/xc32/v4.35/bin/bin/../../lib/gcc/pic32mx/8.3.1/../../../../pic32mx/lib/fpu64\libpic32.a(defaultinterrupt.o)
 .gnu.attributes
                0x0000000000000200       0x10 f:/microchip/xc32/v4.35/bin/bin/../../lib/gcc/pic32mx/8.3.1/../../../../pic32mx/lib/fpu64\libc-musl.a(__sio_sprintf_dn.o)
 .gnu.attributes
                0x0000000000000210       0x10 f:/microchip/xc32/v4.35/bin/bin/../../lib/gcc/pic32mx/8.3.1/../../../../pic32mx/lib/fpu64\libc-musl.a(__fmt_d.o)
 .gnu.attributes
                0x0000000000000220       0x10 f:/microchip/xc32/v4.35/bin/bin/../../lib/gcc/pic32mx/8.3.1/../../../../pic32mx/lib/fpu64\libc-musl.a(__pop_int.o)
 .gnu.attributes
                0x0000000000000230       0x10 f:/microchip/xc32/v4.35/bin/bin/../../lib/gcc/pic32mx/8.3.1/../../../../pic32mx/lib/fpu64\libc-musl.a(__pop_ptr.o)
 .gnu.attributes
                0x0000000000000240       0x10 f:/microchip/xc32/v4.35/bin/bin/../../lib/gcc/pic32mx/8.3.1/../../../../pic32mx/lib/fpu64\libc-musl.a(__printf_core.o)
 .gnu.attributes
                0x0000000000000250       0x10 f:/microchip/xc32/v4.35/bin/bin/../../lib/gcc/pic32mx/8.3.1/../../../../pic32mx/lib/fpu64\libc-musl.a(atoi.o)
 .gnu.attributes
                0x0000000000000260       0x10 f:/microchip/xc32/v4.35/bin/bin/../../lib/gcc/pic32mx/8.3.1/../../../../pic32mx/lib/fpu64\libc-musl.a(memcpy.o)
 .gnu.attributes
                0x0000000000000270       0x10 f:/microchip/xc32/v4.35/bin/bin/../../lib/gcc/pic32mx/8.3.1/../../../../pic32mx/lib/fpu64\libc-musl.a(memset.o)
 .gnu.attributes
                0x0000000000000280       0x10 f:/microchip/xc32/v4.35/bin/bin/../../lib/gcc/pic32mx/8.3.1/../../../../pic32mx/lib/fpu64\libc-musl.a(tolower.o)
 .gnu.attributes
                0x0000000000000290       0x10 f:/microchip/xc32/v4.35/bin/bin/../../lib/gcc/pic32mx/8.3.1/../../../../pic32mx/lib/fpu64\libc-musl.a(__int_vsprintf.o)
 .gnu.attributes
                0x00000000000002a0       0x10 f:/microchip/xc32/v4.35/bin/bin/../../lib/gcc/pic32mx/8.3.1/../../../../pic32mx/lib/fpu64\libc-musl.a(__cvt_u.o)
 .gnu.attributes
                0x00000000000002b0       0x10 f:/microchip/xc32/v4.35/bin/bin/../../lib/gcc/pic32mx/8.3.1/../../../../pic32mx/lib/fpu64\libc-musl.a(__pop_float.o)
 .gnu.attributes
                0x00000000000002c0       0x10 f:/microchip/xc32/v4.35/bin/bin/../../lib/gcc/pic32mx/8.3.1/../../../../pic32mx/lib/fpu64\libc-musl.a(__int_vsnprintf.o)
 .gnu.attributes
                0x00000000000002d0       0x10 f:/microchip/xc32/v4.35/bin/bin/../../lib/gcc/pic32mx/8.3.1/../../../../pic32mx/lib/fpu64\libc-musl.a(__int_vfprintf.o)
 .gnu.attributes
                0x00000000000002e0       0x10 f:/microchip/xc32/v4.35/bin/bin/../../lib/gcc/pic32mx/8.3.1/fpu64\libgcc.a(_udivdi3.o)
 .gnu.attributes
                0x00000000000002f0       0x10 f:/microchip/xc32/v4.35/bin/bin/../../lib/gcc/pic32mx/8.3.1/fpu64\libgcc.a(_umoddi3.o)
 .gnu.attributes
                0x0000000000000300       0x10 f:/microchip/xc32/v4.35/bin/bin/../../lib/gcc/pic32mx/8.3.1/../../../../pic32mx/lib/fpu64\libpic32.a(errno.o)
 .gnu.attributes
                0x0000000000000310       0x10 f:/microchip/xc32/v4.35/bin/bin/../../lib/gcc/pic32mx/8.3.1/../../../../pic32mx/lib/fpu64\libpic32.a(pic32_data_init_clear.o)
 .gnu.attributes
                0x0000000000000320       0x10 f:/microchip/xc32/v4.35/bin/bin/../../lib/gcc/pic32mx/8.3.1/../../../../pic32mx/lib/fpu64\libpic32.a(pic32_data_init_copy.o)
                0x000000009d000000                PROVIDE (__pic32_init_cache_program_base_addr = 0x9d000000)
                0x0000000080000000                PROVIDE (__pic32_init_cache_data_base_addr = 0x80000000)
                0x00000000d0000000                PROVIDE (__pic32_init_sqi_kseg2_virtual_base_addr = 0xd0000000)
                0x0000000030000000                PROVIDE (__pic32_init_sqi_kseg2_physical_base_addr = 0x30000000)
                0x000000000000001f                PROVIDE (__pic32_init_sqi_kseg2_entrylo0_bitset = 0x1f)
                0x00000000d0000000                __pic32_tlb_0_entryhi = __pic32_init_sqi_kseg2_virtual_base_addr
                0x0000000000c0001f                __pic32_tlb_0_entrylo0 = ((__pic32_init_sqi_kseg2_physical_base_addr >> 0x6) | __pic32_init_sqi_kseg2_entrylo0_bitset)
                0x0000000000c4001f                __pic32_tlb_0_entrylo1 = (__pic32_tlb_0_entrylo0 | ((__pic32_init_sqi_kseg2_physical_base_addr + 0x1000000) >> 0x6))
                0x00000000d2000000                __pic32_tlb_1_entryhi = (__pic32_init_sqi_kseg2_virtual_base_addr + 0x2000000)
                0x0000000000c8001f                __pic32_tlb_1_entrylo0 = (((__pic32_init_sqi_kseg2_physical_base_addr + 0x2000000) >> 0x6) | __pic32_init_sqi_kseg2_entrylo0_bitset)
                0x0000000000cc001f                __pic32_tlb_1_entrylo1 = (__pic32_tlb_1_entrylo0 | 0x40000)
                0x00000000f0000000                PROVIDE (__pic32_init_sqi_kseg3_virtual_base_addr = 0xf0000000)
                0x0000000030000000                PROVIDE (__pic32_init_sqi_kseg3_physical_base_addr = 0x30000000)
                0x0000000000000017                PROVIDE (__pic32_init_sqi_kseg3_entrylo0_bitset = 0x17)
                0x00000000f0000000                __pic32_tlb_2_entryhi = __pic32_init_sqi_kseg3_virtual_base_addr
                0x0000000000c00017                __pic32_tlb_2_entrylo0 = ((__pic32_init_sqi_kseg3_physical_base_addr >> 0x6) | __pic32_init_sqi_kseg3_entrylo0_bitset)
                0x0000000000c40017                __pic32_tlb_2_entrylo1 = (__pic32_tlb_2_entrylo0 | ((__pic32_init_sqi_kseg3_physical_base_addr + 0x1000000) >> 0x6))
                0x00000000f2000000                __pic32_tlb_3_entryhi = (__pic32_init_sqi_kseg3_virtual_base_addr + 0x2000000)
                0x0000000000c80017                __pic32_tlb_3_entrylo0 = (((__pic32_init_sqi_kseg3_physical_base_addr + 0x2000000) >> 0x6) | __pic32_init_sqi_kseg3_entrylo0_bitset)
                0x0000000000cc0017                __pic32_tlb_3_entrylo1 = (__pic32_tlb_3_entrylo0 | 0x40000)

.tlb_init_values
                0x00000000bfc00670       0x30
                0x00000000bfc00670                . = ALIGN (0x4)
                0x00000000bfc00670                __pic32_tlb_init_values_begin = ABSOLUTE (.)
                0x00000000bfc00670        0x4 LONG 0xd0000000 __pic32_tlb_0_entryhi
                0x00000000bfc00674        0x4 LONG 0xc0001f __pic32_tlb_0_entrylo0
                0x00000000bfc00678        0x4 LONG 0xc4001f __pic32_tlb_0_entrylo1
                0x00000000bfc0067c        0x4 LONG 0xd2000000 __pic32_tlb_1_entryhi
                0x00000000bfc00680        0x4 LONG 0xc8001f __pic32_tlb_1_entrylo0
                0x00000000bfc00684        0x4 LONG 0xcc001f __pic32_tlb_1_entrylo1
                0x00000000bfc00688        0x4 LONG 0xf0000000 __pic32_tlb_2_entryhi
                0x00000000bfc0068c        0x4 LONG 0xc00017 __pic32_tlb_2_entrylo0
                0x00000000bfc00690        0x4 LONG 0xc40017 __pic32_tlb_2_entrylo1
                0x00000000bfc00694        0x4 LONG 0xf2000000 __pic32_tlb_3_entryhi
                0x00000000bfc00698        0x4 LONG 0xc80017 __pic32_tlb_3_entrylo0
                0x00000000bfc0069c        0x4 LONG 0xcc0017 __pic32_tlb_3_entrylo1
                0x00000000bfc006a0                __pic32_tlb_init_values_end = ABSOLUTE (.)
                0x00000000bfc00674                __pic32_tlb_init_values_count = 0x4
                0x0000000000000200                _min_heap_size = 0x200
LOAD C:\Users\huope\AppData\Local\Temp\cce2fMSS.o
LOAD C:\Users\huope\AppData\Local\Temp\cciHtz9s.o
LOAD C:\Users\huope\AppData\Local\Temp\ccQtjejd.o
LOAD C:\Users\huope\AppData\Local\Temp\ccuT72u7.o
LOAD f:/microchip/xc32/v4.35/bin/bin/../../lib/gcc/pic32mx/8.3.1/../../../../pic32mx/lib/fpu64\pic32_software_reset.o
LOAD f:/microchip/xc32/v4.35/bin/bin/../../lib/gcc/pic32mx/8.3.1/fpu64\libgcc.a
START GROUP
LOAD f:/microchip/xc32/v4.35/bin/bin/../../lib/gcc/pic32mx/8.3.1/../../../../pic32mx/lib/fpu64\libpic32.a
LOAD f:/microchip/xc32/v4.35/bin/bin/../../lib/gcc/pic32mx/8.3.1/../../../../pic32mx/lib/fpu64\libdebug.a
LOAD f:/microchip/xc32/v4.35/bin/bin/../../lib/gcc/pic32mx/8.3.1/../../../../pic32mx/lib/fpu64\libc-musl.a
LOAD f:/microchip/xc32/v4.35/bin/bin/../../lib/gcc/pic32mx/8.3.1/../../../../pic32mx/lib/fpu64\libm-musl.a
LOAD f:/microchip/xc32/v4.35/bin/bin/../../lib/gcc/pic32mx/8.3.1/../../../../pic32mx/lib/fpu64\libdspr2.a
LOAD f:/microchip/xc32/v4.35/bin/bin/../../lib/gcc/pic32mx/8.3.1/../../../../pic32mx/lib/fpu64\libdsp.a
LOAD f:/microchip/xc32/v4.35/bin/bin/../../lib/gcc/pic32mx/8.3.1/fpu64\libgcc.a
END GROUP
LOAD f:/microchip/xc32/v4.35/bin/bin/../../lib/gcc/pic32mx/8.3.1/fpu64\libgcc.a
OUTPUT(dist/default/production/PIC32MZ_Production.X.production.elf elf32-tradlittlemips)
LOAD data_init
LOAD stack

.reginfo        0x0000000000000000       0x18
 .reginfo       0x0000000000000000       0x18 f:/microchip/xc32/v4.35/bin/bin/../../lib/gcc/pic32mx/8.3.1/../../../../pic32mx/lib/fpu64\debug-exception-return.o

.stack          0x00000000800004c0      0x400
 .stack         0x00000000800004c0      0x400 stack

.__vector_offset_BF810540_data
                0x00000000bf810540       0xe8
 .__vector_offset_BF810540_data
                0x00000000bf810540       0xe8 C:\Users\huope\AppData\Local\Temp\ccQtjejd.o

.__vector_offset_BF81079C_data
                0x00000000bf81079c       0x64
 .__vector_offset_BF81079C_data
                0x00000000bf81079c       0x64 C:\Users\huope\AppData\Local\Temp\ccQtjejd.o

.__vector_offset_BF810740_data
                0x00000000bf810740       0x50
 .__vector_offset_BF810740_data
                0x00000000bf810740       0x50 C:\Users\huope\AppData\Local\Temp\ccQtjejd.o

.__vector_offset_BF81062C_data
                0x00000000bf81062c       0x4c
 .__vector_offset_BF81062C_data
                0x00000000bf81062c       0x4c C:\Users\huope\AppData\Local\Temp\ccQtjejd.o

.__vector_offset_BF8106F4_data
                0x00000000bf8106f4       0x24
 .__vector_offset_BF8106F4_data
                0x00000000bf8106f4       0x24 C:\Users\huope\AppData\Local\Temp\ccQtjejd.o

.__vector_offset_BF81071C_data
                0x00000000bf81071c       0x18
 .__vector_offset_BF81071C_data
                0x00000000bf81071c       0x18 C:\Users\huope\AppData\Local\Temp\ccQtjejd.o

.__vector_offset_BF81080C_data
                0x00000000bf81080c       0x18
 .__vector_offset_BF81080C_data
                0x00000000bf81080c       0x18 C:\Users\huope\AppData\Local\Temp\ccQtjejd.o

.__vector_offset_BF810874_data
                0x00000000bf810874       0x18
 .__vector_offset_BF810874_data
                0x00000000bf810874       0x18 C:\Users\huope\AppData\Local\Temp\ccQtjejd.o

.__vector_offset_BF8106D8_data
                0x00000000bf8106d8       0x14
 .__vector_offset_BF8106D8_data
                0x00000000bf8106d8       0x14 C:\Users\huope\AppData\Local\Temp\ccQtjejd.o

.__vector_offset_BF810858_data
                0x00000000bf810858       0x14
 .__vector_offset_BF810858_data
                0x00000000bf810858       0x14 C:\Users\huope\AppData\Local\Temp\ccQtjejd.o

.__vector_offset_BF810830_data
                0x00000000bf810830        0xc
 .__vector_offset_BF810830_data
                0x00000000bf810830        0xc C:\Users\huope\AppData\Local\Temp\ccQtjejd.o

.__vector_offset_BF810840_data
                0x00000000bf810840        0xc
 .__vector_offset_BF810840_data
                0x00000000bf810840        0xc C:\Users\huope\AppData\Local\Temp\ccQtjejd.o

.__vector_offset_BF810850_data
                0x00000000bf810850        0x4
 .__vector_offset_BF810850_data
                0x00000000bf810850        0x4 C:\Users\huope\AppData\Local\Temp\ccQtjejd.o

.__vector_offset_BF810894_data
                0x00000000bf810894        0x4
 .__vector_offset_BF810894_data
                0x00000000bf810894        0x4 C:\Users\huope\AppData\Local\Temp\ccQtjejd.o

.bss.BME280SensorData
                0x0000000080000038       0xcc
 .bss.BME280SensorData
                0x0000000080000038       0xcc build/default/production/_ext/1360937237/main.o

.bss.gDMAChannelObj
                0x0000000080000104       0x80
 .bss.gDMAChannelObj
                0x0000000080000104       0x80 build/default/production/_ext/1865161661/plib_dmac.o

.bss.uartTxBuffer
                0x0000000080000190       0x64
 .bss.uartTxBuffer
                0x0000000080000190       0x64 build/default/production/_ext/1360937237/main.o

.bss.BME280DriverData
                0x00000000800001f4       0x40
 .bss.BME280DriverData
                0x00000000800001f4       0x40 build/default/production/_ext/1360937237/bme280_driver.o

.bss.i2c1Obj    0x0000000080000234       0x34
 .bss.i2c1Obj   0x0000000080000234       0x34 build/default/production/_ext/513455433/plib_i2c1_master.o

.bss.uart2Obj   0x0000000080000268       0x34
 .bss.uart2Obj  0x0000000080000268       0x34 build/default/production/_ext/1865657120/plib_uart2.o

.bss.portPinCbObj
                0x0000000080000184        0xc
 .bss.portPinCbObj
                0x0000000080000184        0xc build/default/production/_ext/1865254177/plib_gpio.o

.bss.errno      0x000000008000029c        0x4
 .bss.errno     0x000000008000029c        0x4 f:/microchip/xc32/v4.35/bin/bin/../../lib/gcc/pic32mx/8.3.1/../../../../pic32mx/lib/fpu64\libpic32.a(errno.o)
                0x000000008000029c                errno

._debug_exception
                0x00000000bfc00480       0x2c
 ._debug_exception
                0x00000000bfc00480       0x2c f:/microchip/xc32/v4.35/bin/bin/../../lib/gcc/pic32mx/8.3.1/../../../../pic32mx/lib/fpu64\debug-exception-return.o
                0x00000000bfc00480                __DbgExecReturn

.config_BFC0FFC0.__config_BFC0FFC0
                0x00000000bfc0ffc0        0x4
 .config_BFC0FFC0.__config_BFC0FFC0
                0x00000000bfc0ffc0        0x4 build/default/production/_ext/1171490990/initialization.o
                0x00000000bfc0ffc0                __config_BFC0FFC0

.config_BFC0FFC4.__config_BFC0FFC4
                0x00000000bfc0ffc4        0x4
 .config_BFC0FFC4.__config_BFC0FFC4
                0x00000000bfc0ffc4        0x4 build/default/production/_ext/1171490990/initialization.o
                0x00000000bfc0ffc4                __config_BFC0FFC4

.config_BFC0FFC8.__config_BFC0FFC8
                0x00000000bfc0ffc8        0x4
 .config_BFC0FFC8.__config_BFC0FFC8
                0x00000000bfc0ffc8        0x4 build/default/production/_ext/1171490990/initialization.o
                0x00000000bfc0ffc8                __config_BFC0FFC8

.config_BFC0FFCC.__config_BFC0FFCC
                0x00000000bfc0ffcc        0x4
 .config_BFC0FFCC.__config_BFC0FFCC
                0x00000000bfc0ffcc        0x4 build/default/production/_ext/1171490990/initialization.o
                0x00000000bfc0ffcc                __config_BFC0FFCC

.config_BFC0FFDC.__config_BFC0FFDC
                0x00000000bfc0ffdc        0x4
 .config_BFC0FFDC.__config_BFC0FFDC
                0x00000000bfc0ffdc        0x4 build/default/production/_ext/1171490990/initialization.o
                0x00000000bfc0ffdc                __config_BFC0FFDC

.config_BFC0FFF0.__config_BFC0FFF0
                0x00000000bfc0fff0        0x4
 .config_BFC0FFF0.__config_BFC0FFF0
                0x00000000bfc0fff0        0x4 build/default/production/_ext/1171490990/initialization.o
                0x00000000bfc0fff0                __config_BFC0FFF0

.text.__printf_core
                0x000000009d000288      0x5a4
 .text.__printf_core
                0x000000009d000288      0x5a4 f:/microchip/xc32/v4.35/bin/bin/../../lib/gcc/pic32mx/8.3.1/../../../../pic32mx/lib/fpu64\libc-musl.a(__printf_core.o)
                0x000000009d000288                __printf_core

.text.I2C1_MASTER_InterruptHandler
                0x000000009d00082c      0x558
 .text.I2C1_MASTER_InterruptHandler
                0x000000009d00082c      0x558 build/default/production/_ext/513455433/plib_i2c1_master.o
                0x000000009d00082c                I2C1_MASTER_InterruptHandler

.dinit          0x000000009d000d84      0x410
 .dinit         0x000000009d000d84      0x410 data_init

.text           0x000000009d001194      0x774
 .text          0x000000009d001194      0x3bc f:/microchip/xc32/v4.35/bin/bin/../../lib/gcc/pic32mx/8.3.1/fpu64\libgcc.a(_udivdi3.o)
                0x000000009d001194                __udivdi3
 .text          0x000000009d001550      0x3b8 f:/microchip/xc32/v4.35/bin/bin/../../lib/gcc/pic32mx/8.3.1/fpu64\libgcc.a(_umoddi3.o)
                0x000000009d001550                __umoddi3

.text.main      0x000000009d001908      0x37c
 .text.main     0x000000009d001908      0x37c build/default/production/_ext/1360937237/main.o
                0x000000009d001908                main

.text.BME280_CalibParams_Get
                0x000000009d001c84      0x2fc
 .text.BME280_CalibParams_Get
                0x000000009d001c84      0x2fc build/default/production/_ext/1360937237/bme280_driver.o
                0x000000009d001c84                BME280_CalibParams_Get

.text.TIMER_2_Handler
                0x000000009d001f80      0x1d0
 .text.TIMER_2_Handler
                0x000000009d001f80      0x1d0 build/default/production/_ext/1171490990/interrupts.o
                0x000000009d001f80                TIMER_2_Handler

.text.I2C1_BUS_Handler
                0x000000009d002150      0x1d0
 .text.I2C1_BUS_Handler
                0x000000009d002150      0x1d0 build/default/production/_ext/1171490990/interrupts.o
                0x000000009d002150                I2C1_BUS_Handler

.text.I2C1_MASTER_Handler
                0x000000009d002320      0x1d0
 .text.I2C1_MASTER_Handler
                0x000000009d002320      0x1d0 build/default/production/_ext/1171490990/interrupts.o
                0x000000009d002320                I2C1_MASTER_Handler

.text.CHANGE_NOTICE_B_Handler
                0x000000009d0024f0      0x1d0
 .text.CHANGE_NOTICE_B_Handler
                0x000000009d0024f0      0x1d0 build/default/production/_ext/1171490990/interrupts.o
                0x000000009d0024f0                CHANGE_NOTICE_B_Handler

.text.DMA0_Handler
                0x000000009d0026c0      0x1d0
 .text.DMA0_Handler
                0x000000009d0026c0      0x1d0 build/default/production/_ext/1171490990/interrupts.o
                0x000000009d0026c0                DMA0_Handler

.text.UART2_FAULT_Handler
                0x000000009d002890      0x1d0
 .text.UART2_FAULT_Handler
                0x000000009d002890      0x1d0 build/default/production/_ext/1171490990/interrupts.o
                0x000000009d002890                UART2_FAULT_Handler

.text.UART2_RX_Handler
                0x000000009d002a60      0x1d0
 .text.UART2_RX_Handler
                0x000000009d002a60      0x1d0 build/default/production/_ext/1171490990/interrupts.o
                0x000000009d002a60                UART2_RX_Handler

.text.UART2_TX_Handler
                0x000000009d002c30      0x1d0
 .text.UART2_TX_Handler
                0x000000009d002c30      0x1d0 build/default/production/_ext/1171490990/interrupts.o
                0x000000009d002c30                UART2_TX_Handler

.text.__pop_int
                0x000000009d002e00      0x188
 .text.__pop_int
                0x000000009d002e00      0x188 f:/microchip/xc32/v4.35/bin/bin/../../lib/gcc/pic32mx/8.3.1/../../../../pic32mx/lib/fpu64\libc-musl.a(__pop_int.o)
                0x000000009d002e00                __pop_int_needed
                0x000000009d002e00                __pop_int

.text           0x000000009d002f88      0x168
 .text          0x000000009d002f88      0x168 f:/microchip/xc32/v4.35/bin/bin/../../lib/gcc/pic32mx/8.3.1/../../../../pic32mx/lib/fpu64\libpic32.a(strlen.o)
                0x000000009d002f88                strlen

.text.__fmt_d   0x000000009d0030f0      0x150
 .text.__fmt_d  0x000000009d0030f0      0x150 f:/microchip/xc32/v4.35/bin/bin/../../lib/gcc/pic32mx/8.3.1/../../../../pic32mx/lib/fpu64\libc-musl.a(__fmt_d.o)
                0x000000009d0030f0                __fmt_d_needed
                0x000000009d0030f0                __fmt_d

.text.DMA0_InterruptHandler
                0x000000009d003240      0x148
 .text.DMA0_InterruptHandler
                0x000000009d003240      0x148 build/default/production/_ext/1865161661/plib_dmac.o
                0x000000009d003240                DMA0_InterruptHandler

.text.__cvt_u   0x000000009d003388      0x13c
 .text.__cvt_u  0x000000009d003388      0x13c f:/microchip/xc32/v4.35/bin/bin/../../lib/gcc/pic32mx/8.3.1/../../../../pic32mx/lib/fpu64\libc-musl.a(__cvt_u.o)
                0x000000009d003388                __cvt_u

.text.UART2_RX_InterruptHandler
                0x000000009d0034c4      0x128
 .text.UART2_RX_InterruptHandler
                0x000000009d0034c4      0x128 build/default/production/_ext/1865657120/plib_uart2.o
                0x000000009d0034c4                UART2_RX_InterruptHandler

.text.UART2_TX_InterruptHandler
                0x000000009d0035ec      0x128
 .text.UART2_TX_InterruptHandler
                0x000000009d0035ec      0x128 build/default/production/_ext/1865657120/plib_uart2.o
                0x000000009d0035ec                UART2_TX_InterruptHandler

.text.DMAC_ChannelTransfer
                0x000000009d003714      0x104
 .text.DMAC_ChannelTransfer
                0x000000009d003714      0x104 build/default/production/_ext/1865161661/plib_dmac.o
                0x000000009d003714                DMAC_ChannelTransfer

.text.DMAC_ChannelSetAddresses
                0x000000009d003818      0x100
 .text.DMAC_ChannelSetAddresses
                0x000000009d003818      0x100 build/default/production/_ext/1865161661/plib_dmac.o

.text.__pad     0x000000009d003918      0x100
 .text.__pad    0x000000009d003918      0x100 f:/microchip/xc32/v4.35/bin/bin/../../lib/gcc/pic32mx/8.3.1/../../../../pic32mx/lib/fpu64\libc-musl.a(__printf_core.o)
                0x000000009d003918                __pad

.text.PasswordDiscovery
                0x000000009d003a18       0xf4
 .text.PasswordDiscovery
                0x000000009d003a18       0xf4 build/default/production/_ext/1360937237/main.o
                0x000000009d003a18                PasswordDiscovery

.text.__pop_ptr
                0x000000009d000010       0xe4
 .text.__pop_ptr
                0x000000009d000010       0xe4 f:/microchip/xc32/v4.35/bin/bin/../../lib/gcc/pic32mx/8.3.1/../../../../pic32mx/lib/fpu64\libc-musl.a(__pop_ptr.o)
                0x000000009d000010                __pop_ptr_needed
                0x000000009d000010                __pop_ptr

.text.general_exception
                0x000000009d003b0c       0xdc
 .text.general_exception
                0x000000009d003b0c       0xdc f:/microchip/xc32/v4.35/bin/bin/../../lib/gcc/pic32mx/8.3.1/../../../../pic32mx/lib/fpu64\libpic32.a(general-exception.o)
                0x000000009d003b0c                _general_exception_context

.text._cache_err_exception_context
                0x000000009d003be8       0xd8
 .text._cache_err_exception_context
                0x000000009d003be8       0xd8 f:/microchip/xc32/v4.35/bin/bin/../../lib/gcc/pic32mx/8.3.1/../../../../pic32mx/lib/fpu64\libpic32.a(cache-err-exception.o)
                0x000000009d003be8                _cache_err_exception_context

.text.simple_tlb_refill_context
                0x000000009d003cc0       0xd8
 .text.simple_tlb_refill_context
                0x000000009d003cc0       0xd8 f:/microchip/xc32/v4.35/bin/bin/../../lib/gcc/pic32mx/8.3.1/../../../../pic32mx/lib/fpu64\libpic32.a(simple-tlb-refill-exception.o)
                0x000000009d003cc0                _simple_tlb_refill_exception_context

.text.GPIO_PinIntEnable
                0x000000009d003d98       0xc8
 .text.GPIO_PinIntEnable
                0x000000009d003d98       0xc8 build/default/production/_ext/1865254177/plib_gpio.o
                0x000000009d003d98                GPIO_PinIntEnable

.text.BME280_SetOversampling
                0x000000009d003e60       0xc8
 .text.BME280_SetOversampling
                0x000000009d003e60       0xc8 build/default/production/_ext/1360937237/bme280_driver.o
                0x000000009d003e60                BME280_SetOversampling

.text.GPIO_Initialize
                0x000000009d003f28       0xbc
 .text.GPIO_Initialize
                0x000000009d003f28       0xbc build/default/production/_ext/1865254177/plib_gpio.o
                0x000000009d003f28                GPIO_Initialize

.tlb.__pic32_tlb_init_ebi_sqi
                0x000000009d003fe4       0xbc
 .tlb.__pic32_tlb_init_ebi_sqi
                0x000000009d003fe4       0xbc f:/microchip/xc32/v4.35/bin/bin/../../lib/gcc/pic32mx/8.3.1/../../../../pic32mx/lib/fpu64\libpic32.a(pic32_init_tlb_ebi_sqi.o)
                0x000000009d003fe4                __pic32_tlb_init_ebi_sqi

.rodata.main.str1.4
                0x000000009d0040a0       0xb8
 .rodata.main.str1.4
                0x000000009d0040a0       0xb8 build/default/production/_ext/1360937237/main.o

.text.CLK_Initialize
                0x000000009d004158       0xb4
 .text.CLK_Initialize
                0x000000009d004158       0xb4 build/default/production/_ext/60165520/plib_clk.o
                0x000000009d004158                CLK_Initialize

.text.GPIO_PinInterruptCallbackRegister
                0x000000009d00420c       0xac
 .text.GPIO_PinInterruptCallbackRegister
                0x000000009d00420c       0xac build/default/production/_ext/1865254177/plib_gpio.o
                0x000000009d00420c                GPIO_PinInterruptCallbackRegister

.text.BME280_ReadRawWeatherData
                0x000000009d0042b8       0x9c
 .text.BME280_ReadRawWeatherData
                0x000000009d0042b8       0x9c build/default/production/_ext/1360937237/bme280_driver.o
                0x000000009d0042b8                BME280_ReadRawWeatherData

.text.SYS_Initialize
                0x000000009d004354       0x90
 .text.SYS_Initialize
                0x000000009d004354       0x90 build/default/production/_ext/1171490990/initialization.o
                0x000000009d004354                SYS_Initialize

.text.UART2_Read
                0x000000009d0043e4       0x90
 .text.UART2_Read
                0x000000009d0043e4       0x90 build/default/production/_ext/1865657120/plib_uart2.o
                0x000000009d0043e4                UART2_Read

.text.I2C1_WriteRead
                0x000000009d004474       0x8c
 .text.I2C1_WriteRead
                0x000000009d004474       0x8c build/default/production/_ext/513455433/plib_i2c1_master.o
                0x000000009d004474                I2C1_WriteRead

.text.I2C1_Write
                0x000000009d004500       0x88
 .text.I2C1_Write
                0x000000009d004500       0x88 build/default/production/_ext/513455433/plib_i2c1_master.o
                0x000000009d004500                I2C1_Write

.text.UART2_Initialize
                0x000000009d004588       0x88
 .text.UART2_Initialize
                0x000000009d004588       0x88 build/default/production/_ext/1865657120/plib_uart2.o
                0x000000009d004588                UART2_Initialize

.text.BME280Sensor_Initialize
                0x000000009d004610       0x84
 .text.BME280Sensor_Initialize
                0x000000009d004610       0x84 build/default/production/_ext/1360937237/main.o
                0x000000009d004610                BME280Sensor_Initialize

.text.CHANGE_NOTICE_B_InterruptHandler
                0x000000009d004694       0x84
 .text.CHANGE_NOTICE_B_InterruptHandler
                0x000000009d004694       0x84 build/default/production/_ext/1865254177/plib_gpio.o
                0x000000009d004694                CHANGE_NOTICE_B_InterruptHandler

.text.__vsnprintf
                0x000000009d004718       0x80
 .text.__vsnprintf
                0x000000009d004718       0x80 f:/microchip/xc32/v4.35/bin/bin/../../lib/gcc/pic32mx/8.3.1/../../../../pic32mx/lib/fpu64\libc-musl.a(__int_vsnprintf.o)
                0x000000009d004718                __vsnprintf

.text           0x000000009d004798       0x7c
 .text          0x000000009d004798       0x7c f:/microchip/xc32/v4.35/bin/bin/../../lib/gcc/pic32mx/8.3.1/../../../../pic32mx/lib/fpu64\libpic32.a(pic32_data_init_core.o)
                0x000000009d004798                __dinit_copy_val_data
                0x000000009d004798                __dinit_decompress
                0x000000009d004798                __dinit_copy_emb
                0x000000009d0047a0                __pic32_data_init

.text.atoi      0x000000009d004814       0x7c
 .text.atoi     0x000000009d004814       0x7c f:/microchip/xc32/v4.35/bin/bin/../../lib/gcc/pic32mx/8.3.1/../../../../pic32mx/lib/fpu64\libc-musl.a(atoi.o)
                0x000000009d004814                atoi

.text.EVIC_Initialize
                0x000000009d004890       0x78
 .text.EVIC_Initialize
                0x000000009d004890       0x78 build/default/production/_ext/1865200349/plib_evic.o
                0x000000009d004890                EVIC_Initialize

.text.DMAC_Initialize
                0x000000009d004908       0x78
 .text.DMAC_Initialize
                0x000000009d004908       0x78 build/default/production/_ext/1865161661/plib_dmac.o
                0x000000009d004908                DMAC_Initialize

.text.UART2_ErrorClear
                0x000000009d004980       0x74
 .text.UART2_ErrorClear
                0x000000009d004980       0x74 build/default/production/_ext/1865657120/plib_uart2.o

.text.UART2_FAULT_InterruptHandler
                0x000000009d000110       0x70
 .text.UART2_FAULT_InterruptHandler
                0x000000009d000110       0x70 build/default/production/_ext/1865657120/plib_uart2.o
                0x000000009d000110                UART2_FAULT_InterruptHandler

.text.I2C1_Initialize
                0x000000009d000190       0x6c
 .text.I2C1_Initialize
                0x000000009d000190       0x6c build/default/production/_ext/513455433/plib_i2c1_master.o
                0x000000009d000190                I2C1_Initialize

.text.I2C1_BUS_InterruptHandler
                0x000000009d0049f4       0x6c
 .text.I2C1_BUS_InterruptHandler
                0x000000009d0049f4       0x6c build/default/production/_ext/513455433/plib_i2c1_master.o
                0x000000009d0049f4                I2C1_BUS_InterruptHandler

.text.BME280_GetTempReading
                0x000000009d004a60       0x64
 .text.BME280_GetTempReading
                0x000000009d004a60       0x64 build/default/production/_ext/1360937237/bme280_driver.o
                0x000000009d004a60                BME280_GetTempReading

.text.__string_out
                0x000000009d004ac4       0x5c
 .text.__string_out
                0x000000009d004ac4       0x5c f:/microchip/xc32/v4.35/bin/bin/../../lib/gcc/pic32mx/8.3.1/../../../../pic32mx/lib/fpu64\libc-musl.a(__printf_core.o)
                0x000000009d004ac4                __out

.text.__fmt_state
                0x000000009d004b20       0x58
 .text.__fmt_state
                0x000000009d004b20       0x58 f:/microchip/xc32/v4.35/bin/bin/../../lib/gcc/pic32mx/8.3.1/../../../../pic32mx/lib/fpu64\libc-musl.a(__printf_core.o)
                0x000000009d004b20                __fmt_state

.text.BME280Sensor_ReadReg
                0x000000009d004b78       0x54
 .text.BME280Sensor_ReadReg
                0x000000009d004b78       0x54 build/default/production/_ext/1360937237/main.o

.text.main_entry
                0x000000009d004bcc       0x54
 .text.main_entry
                0x000000009d004bcc       0x54 C:\Users\huope\AppData\Local\Temp\cce2fMSS.o
                0x000000009d004c00                __crt0_exit

.text.BME280_PowerMode_Set
                0x000000009d004c20       0x50
 .text.BME280_PowerMode_Set
                0x000000009d004c20       0x50 build/default/production/_ext/1360937237/bme280_driver.o
                0x000000009d004c20                BME280_PowerMode_Set

.text.CORETIMER_DelayMs
                0x000000009d004c70       0x4c
 .text.CORETIMER_DelayMs
                0x000000009d004c70       0x4c build/default/production/_ext/1249264884/plib_coretimer.o
                0x000000009d004c70                CORETIMER_DelayMs

.text.TIMER_2_InterruptHandler
                0x000000009d004cbc       0x48
 .text.TIMER_2_InterruptHandler
                0x000000009d004cbc       0x48 build/default/production/_ext/60181895/plib_tmr2.o
                0x000000009d004cbc                TIMER_2_InterruptHandler

.text.__pop_float
                0x000000009d004d04       0x48
 .text.__pop_float
                0x000000009d004d04       0x48 f:/microchip/xc32/v4.35/bin/bin/../../lib/gcc/pic32mx/8.3.1/../../../../pic32mx/lib/fpu64\libc-musl.a(__pop_float.o)
                0x000000009d004d04                __pop_float_needed
                0x000000009d004d04                __pop_float

.text.BME280Sensor_Read
                0x000000009d004d4c       0x44
 .text.BME280Sensor_Read
                0x000000009d004d4c       0x44 build/default/production/_ext/1360937237/main.o

.text           0x000000009d004d90       0x44
 .text          0x000000009d004d90       0x44 f:/microchip/xc32/v4.35/bin/bin/../../lib/gcc/pic32mx/8.3.1/../../../../pic32mx/lib/fpu64\pic32_software_reset.o
                0x000000009d004d90                __pic32_software_reset

.text.BME280Sensor_WriteReg
                0x000000009d004dd4       0x40
 .text.BME280Sensor_WriteReg
                0x000000009d004dd4       0x40 build/default/production/_ext/1360937237/main.o

.text.CORETIMER_Initialize
                0x000000009d004e14       0x3c
 .text.CORETIMER_Initialize
                0x000000009d004e14       0x3c build/default/production/_ext/1249264884/plib_coretimer.o
                0x000000009d004e14                CORETIMER_Initialize

.text.TMR2_Initialize
                0x000000009d004e50       0x3c
 .text.TMR2_Initialize
                0x000000009d004e50       0x3c build/default/production/_ext/60181895/plib_tmr2.o
                0x000000009d004e50                TMR2_Initialize

.text.__vfprintf
                0x000000009d004e8c       0x3c
 .text.__vfprintf
                0x000000009d004e8c       0x3c f:/microchip/xc32/v4.35/bin/bin/../../lib/gcc/pic32mx/8.3.1/../../../../pic32mx/lib/fpu64\libc-musl.a(__int_vfprintf.o)
                0x000000009d004e8c                __vfprintf

.text.I2CBufferEventHandler
                0x000000009d004ec8       0x2c
 .text.I2CBufferEventHandler
                0x000000009d004ec8       0x2c build/default/production/_ext/1360937237/main.o

.text.memcpy    0x000000009d004ef4       0x2c
 .text.memcpy   0x000000009d004ef4       0x2c f:/microchip/xc32/v4.35/bin/bin/../../lib/gcc/pic32mx/8.3.1/../../../../pic32mx/lib/fpu64\libc-musl.a(memcpy.o)
                0x000000009d004ef4                memcpy

.text.BME280_SoftReset
                0x000000009d004f20       0x28
 .text.BME280_SoftReset
                0x000000009d004f20       0x28 build/default/production/_ext/1360937237/bme280_driver.o
                0x000000009d004f20                BME280_SoftReset

.text.__wrap_sprintf
                0x000000009d004f48       0x28
 .text.__wrap_sprintf
                0x000000009d004f48       0x28 f:/microchip/xc32/v4.35/bin/bin/../../lib/gcc/pic32mx/8.3.1/../../../../pic32mx/lib/fpu64\libc-musl.a(__sio_sprintf_dn.o)
                0x000000009d004f48                _sprintf_dn
                0x000000009d004f48                _dsprintf_dn

.text.memset    0x000000009d004f70       0x28
 .text.memset   0x000000009d004f70       0x28 f:/microchip/xc32/v4.35/bin/bin/../../lib/gcc/pic32mx/8.3.1/../../../../pic32mx/lib/fpu64\libc-musl.a(memset.o)
                0x000000009d004f70                memset

.text.__vsprintf
                0x000000009d004f98       0x28
 .text.__vsprintf
                0x000000009d004f98       0x28 f:/microchip/xc32/v4.35/bin/bin/../../lib/gcc/pic32mx/8.3.1/../../../../pic32mx/lib/fpu64\libc-musl.a(__int_vsprintf.o)
                0x000000009d004f98                __vsprintf

.text.BME280_ID_Get
                0x000000009d004fc0       0x24
 .text.BME280_ID_Get
                0x000000009d004fc0       0x24 build/default/production/_ext/1360937237/bme280_driver.o
                0x000000009d004fc0                BME280_ID_Get

.text.S1_User_Handler
                0x000000009d004fe4       0x20
 .text.S1_User_Handler
                0x000000009d004fe4       0x20 build/default/production/_ext/1360937237/main.o

.text.DMAC_ChannelCallbackRegister
                0x000000009d005004       0x20
 .text.DMAC_ChannelCallbackRegister
                0x000000009d005004       0x20 build/default/production/_ext/1865161661/plib_dmac.o
                0x000000009d005004                DMAC_ChannelCallbackRegister

.text           0x000000009d005024       0x20
 .text          0x000000009d005024       0x20 f:/microchip/xc32/v4.35/bin/bin/../../lib/gcc/pic32mx/8.3.1/../../../../pic32mx/lib/fpu64\libpic32.a(pic32_data_init_copy.o)
                0x000000009d005024                __dinit_copy
                0x000000009d005024                __dinit_copy_needed

.text.I2C1_CallbackRegister
                0x000000009d005044       0x1c
 .text.I2C1_CallbackRegister
                0x000000009d005044       0x1c build/default/production/_ext/513455433/plib_i2c1_master.o
                0x000000009d005044                I2C1_CallbackRegister

.text.tolower   0x000000009d005060       0x1c
 .text.tolower  0x000000009d005060       0x1c f:/microchip/xc32/v4.35/bin/bin/../../lib/gcc/pic32mx/8.3.1/../../../../pic32mx/lib/fpu64\libc-musl.a(tolower.o)
                0x000000009d005060                tolower

.MIPS.abiflags  0x000000009d005080       0x18
 .MIPS.abiflags
                0x000000009d005080       0x18 f:/microchip/xc32/v4.35/bin/bin/../../lib/gcc/pic32mx/8.3.1/../../../../pic32mx/lib/fpu64\debug-exception-return.o

.text.I2C1_ErrorGet
                0x000000009d005098       0x18
 .text.I2C1_ErrorGet
                0x000000009d005098       0x18 build/default/production/_ext/513455433/plib_i2c1_master.o
                0x000000009d005098                I2C1_ErrorGet

.rodata.cst8    0x000000009d0050b0       0x18
 .rodata.cst8   0x000000009d0050b0       0x18 build/default/production/_ext/1360937237/main.o

.text._general_exception_handler
                0x000000009d0050c8       0x18
 .text._general_exception_handler
                0x000000009d0050c8       0x18 build/default/production/_ext/1171490990/exceptions.o
                0x000000009d0050c8                _general_exception_handler

.text._bootstrap_exception_handler
                0x000000009d0050e0       0x18
 .text._bootstrap_exception_handler
                0x000000009d0050e0       0x18 build/default/production/_ext/1171490990/exceptions.o
                0x000000009d0050e0                _bootstrap_exception_handler

.text._cache_err_exception_handler
                0x000000009d0050f8       0x18
 .text._cache_err_exception_handler
                0x000000009d0050f8       0x18 build/default/production/_ext/1171490990/exceptions.o
                0x000000009d0050f8                _cache_err_exception_handler

.text._simple_tlb_refill_exception_handler
                0x000000009d005110       0x18
 .text._simple_tlb_refill_exception_handler
                0x000000009d005110       0x18 build/default/production/_ext/1171490990/exceptions.o
                0x000000009d005110                _simple_tlb_refill_exception_handler

.text           0x000000009d005128       0x18
 .text          0x000000009d005128       0x18 f:/microchip/xc32/v4.35/bin/bin/../../lib/gcc/pic32mx/8.3.1/../../../../pic32mx/lib/fpu64\libpic32.a(default-nmi-handler.o)
                0x000000009d005128                _nmi_handler

.rodata         0x000000009d005140       0x18
 .rodata        0x000000009d005140       0x18 f:/microchip/xc32/v4.35/bin/bin/../../lib/gcc/pic32mx/8.3.1/../../../../pic32mx/lib/fpu64\libc-musl.a(__printf_core.o)

.text           0x000000009d005158       0x18
 .text          0x000000009d005158       0x18 f:/microchip/xc32/v4.35/bin/bin/../../lib/gcc/pic32mx/8.3.1/../../../../pic32mx/lib/fpu64\libpic32.a(pic32_data_init_clear.o)
                0x000000009d005158                __dinit_clear_needed
                0x000000009d005158                __dinit_clear

.text.UARTDmaChannelHandler
                0x000000009d005170       0x14
 .text.UARTDmaChannelHandler
                0x000000009d005170       0x14 build/default/production/_ext/1360937237/main.o

.text.UART2_ReadIsBusy
                0x000000009d005184       0x14
 .text.UART2_ReadIsBusy
                0x000000009d005184       0x14 build/default/production/_ext/1865657120/plib_uart2.o
                0x000000009d005184                UART2_ReadIsBusy

.text.TMR2_Start
                0x000000009d005198       0x14
 .text.TMR2_Start
                0x000000009d005198       0x14 build/default/production/_ext/60181895/plib_tmr2.o
                0x000000009d005198                TMR2_Start

.text.TMR2_Stop
                0x000000009d0051ac       0x14
 .text.TMR2_Stop
                0x000000009d0051ac       0x14 build/default/production/_ext/60181895/plib_tmr2.o
                0x000000009d0051ac                TMR2_Stop

.text.TMR2_CallbackRegister
                0x000000009d0051c0       0x14
 .text.TMR2_CallbackRegister
                0x000000009d0051c0       0x14 build/default/production/_ext/60181895/plib_tmr2.o
                0x000000009d0051c0                TMR2_CallbackRegister

.text.BME280_RegisterDrvReadReg
                0x000000009d0051d4       0x14
 .text.BME280_RegisterDrvReadReg
                0x000000009d0051d4       0x14 build/default/production/_ext/1360937237/bme280_driver.o
                0x000000009d0051d4                BME280_RegisterDrvReadReg

.text.BME280_RegisterDrvWriteReg
                0x000000009d0051e8       0x14
 .text.BME280_RegisterDrvWriteReg
                0x000000009d0051e8       0x14 build/default/production/_ext/1360937237/bme280_driver.o
                0x000000009d0051e8                BME280_RegisterDrvWriteReg

.text.BME280_RegisterDrvRead
                0x000000009d0051fc       0x14
 .text.BME280_RegisterDrvRead
                0x000000009d0051fc       0x14 build/default/production/_ext/1360937237/bme280_driver.o
                0x000000009d0051fc                BME280_RegisterDrvRead

.rodata         0x000000009d005210       0x14
 .rodata        0x000000009d005210       0x14 f:/microchip/xc32/v4.35/bin/bin/../../lib/gcc/pic32mx/8.3.1/../../../../pic32mx/lib/fpu64\libpic32.a(pic32_data_init_core.o)

.text.tmr1EventHandler
                0x000000009d005224       0x10
 .text.tmr1EventHandler
                0x000000009d005224       0x10 build/default/production/_ext/1360937237/main.o

.text.TMR2_PeriodSet
                0x000000009d005234       0x10
 .text.TMR2_PeriodSet
                0x000000009d005234       0x10 build/default/production/_ext/60181895/plib_tmr2.o
                0x000000009d005234                TMR2_PeriodSet

.rodata.str1.4  0x000000009d0000f4        0xc
 .rodata.str1.4
                0x000000009d0000f4        0xc f:/microchip/xc32/v4.35/bin/bin/../../lib/gcc/pic32mx/8.3.1/../../../../pic32mx/lib/fpu64\libc-musl.a(__printf_core.o)

.rodata.portNumCb
                0x000000009d005244        0x8
 .rodata.portNumCb
                0x000000009d005244        0x8 build/default/production/_ext/1865254177/plib_gpio.o

.text._on_reset
                0x000000009d00524c        0x8
 .text._on_reset
                0x000000009d00524c        0x8 f:/microchip/xc32/v4.35/bin/bin/../../lib/gcc/pic32mx/8.3.1/../../../../pic32mx/lib/fpu64\libpic32.a(default-on-reset.o)
                0x000000009d00524c                _on_reset

.text._on_bootstrap
                0x000000009d005254        0x8
 .text._on_bootstrap
                0x000000009d005254        0x8 f:/microchip/xc32/v4.35/bin/bin/../../lib/gcc/pic32mx/8.3.1/../../../../pic32mx/lib/fpu64\libpic32.a(default-on-bootstrap.o)
                0x000000009d005254                _on_bootstrap

.text.__dummy_fmt3
                0x000000009d00525c        0x8
 .text.__dummy_fmt3
                0x000000009d00525c        0x8 f:/microchip/xc32/v4.35/bin/bin/../../lib/gcc/pic32mx/8.3.1/../../../../pic32mx/lib/fpu64\libc-musl.a(__printf_core.o)
                0x000000009d00525c                __fmt_u
                0x000000009d00525c                __fmt_o

.text.__dummy_fmt4
                0x000000009d005264        0x8
 .text.__dummy_fmt4
                0x000000009d005264        0x8 f:/microchip/xc32/v4.35/bin/bin/../../lib/gcc/pic32mx/8.3.1/../../../../pic32mx/lib/fpu64\libc-musl.a(__printf_core.o)
                0x000000009d005264                __fmt_x
                0x000000009d005264                __fmt_fp
                0x000000009d005264                __fmt_a

.text.__dummy_fmts
                0x000000009d00526c        0x8
 .text.__dummy_fmts
                0x000000009d00526c        0x8 f:/microchip/xc32/v4.35/bin/bin/../../lib/gcc/pic32mx/8.3.1/../../../../pic32mx/lib/fpu64\libc-musl.a(__printf_core.o)
                0x000000009d00526c                __fmt_s
